 dll

 Timestamp is 5dd494ab (Tue Nov 19 20:19:39 2019)

 Preferred load address is 10000000

 Start         Length     Name                   Class
 0001:00000000 00000120H .text$di                CODE
 0001:00000120 000152c0H .text$mn                CODE
 0001:000153e0 000008e0H .text$x                 CODE
 0001:00015cc0 00000082H .text$yd                CODE
 0002:00000000 00000210H .idata$5                DATA
 0002:00000210 00000004H .00cfg                  DATA
 0002:00000214 00000004H .CRT$XCA                DATA
 0002:00000218 00000004H .CRT$XCL                DATA
 0002:0000021c 00000024H .CRT$XCU                DATA
 0002:00000240 00000004H .CRT$XCZ                DATA
 0002:00000244 00000004H .CRT$XIA                DATA
 0002:00000248 00000004H .CRT$XIC                DATA
 0002:0000024c 00000004H .CRT$XIZ                DATA
 0002:00000250 00000004H .CRT$XLA                DATA
 0002:00000254 00000004H .CRT$XLZ                DATA
 0002:00000258 00000004H .CRT$XPA                DATA
 0002:0000025c 00000004H .CRT$XPZ                DATA
 0002:00000260 00000004H .CRT$XTA                DATA
 0002:00000264 0000000cH .CRT$XTZ                DATA
 0002:00000268 00000000H .gfids$y                DATA
 0002:00000270 00001704H .rdata                  DATA
 0002:00001974 00000018H .rdata$T                DATA
 0002:0000198c 000005e4H .rdata$r                DATA
 0002:00001f70 000000b4H .rdata$sxdata           DATA
 0002:00002024 00000388H .rdata$zzzdbg           DATA
 0002:000023ac 00000004H .rtc$IAA                DATA
 0002:000023b0 00000004H .rtc$IZZ                DATA
 0002:000023b4 00000004H .rtc$TAA                DATA
 0002:000023b8 00000004H .rtc$TZZ                DATA
 0002:000023bc 00000004H .tls                    DATA
 0002:000023c0 00000004H .tls$                   DATA
 0002:000023c4 00000004H .tls$ZZZ                DATA
 0002:000023c8 00000aa8H .xdata$x                DATA
 0002:00002e70 00000000H .edata                  DATA
 0002:00002e70 000000c8H .idata$2                DATA
 0002:00002f38 00000014H .idata$3                DATA
 0002:00002f4c 00000210H .idata$4                DATA
 0002:0000315c 000012daH .idata$6                DATA
 0003:00000000 000000f8H .data                   DATA
 0003:000000f8 00000348H .data$r                 DATA
 0003:00000440 00001c84H .bss                    DATA
 0004:00000000 00000060H .rsrc$01                DATA
 0004:00000060 00000098H .rsrc$02                DATA

  Address         Publics by Value              Rva+Base       Lib:Object

 0000:00000000       ___guard_fids_count        00000000     <absolute>
 0000:00000000       ___guard_longjmp_table     00000000     <absolute>
 0000:00000000       ___enclave_config          00000000     <absolute>
 0000:00000000       ___dynamic_value_reloc_table 00000000     <absolute>
 0000:00000000       ___hybrid_code_map_count   00000000     <absolute>
 0000:00000000       ___guard_iat_table         00000000     <absolute>
 0000:00000000       ___volatile_metadata       00000000     <absolute>
 0000:00000000       ___hybrid_code_map         00000000     <absolute>
 0000:00000000       ___hybrid_auxiliary_iat    00000000     <absolute>
 0000:00000000       ___guard_fids_table        00000000     <absolute>
 0000:00000000       ___guard_longjmp_count     00000000     <absolute>
 0000:00000000       ___AbsoluteZero            00000000     <absolute>
 0000:00000000       ___guard_iat_count         00000000     <absolute>
 0000:0000002c       __tls_array                0000002c     <absolute>
 0000:0000002d       ___safe_se_handler_count   0000002d     <absolute>
 0000:00000100       ___guard_flags             00000100     <absolute>
 0000:00000000       ___ImageBase               10000000     <linker-defined>
 0001:00000120       ??$?0$$V@?$_Compressed_pair@V?$allocator@H@std@@V?$_Vector_val@U?$_Simple_types@H@std@@@2@$00@std@@QAE@U_Zero_then_variadic_args_t@1@@Z 10001120 f i aimbot.obj
 0001:00000120       ??$?0$$V@?$_Compressed_pair@V?$allocator@U?$pair@PAVc_baseentity@@Vvector@@@std@@@std@@V?$_Vector_val@U?$_Simple_types@U?$pair@PAVc_baseentity@@Vvector@@@std@@@std@@@2@$00@std@@QAE@U_Zero_then_variadic_args_t@1@@Z 10001120 f i resolver.obj
 0001:00000140       ??$_Allocate@$07U_Default_allocate_traits@std@@$0A@@std@@YAPAXI@Z 10001140 f i aimbot.obj
 0001:00000180       ??$_Allocate_manually_vector_aligned@U_Default_allocate_traits@std@@@std@@YAPAXI@Z 10001180 f i aimbot.obj
 0001:000001f0       ??$_Copy_memmove@PAHPAH@std@@YAPAHPAH00@Z 100011f0 f i aimbot.obj
 0001:00000230       ??$_Deallocate@$07$0A@@std@@YAXPAXI@Z 10001230 f i aimbot.obj
 0001:00000290       ??$_Destroy_in_place@PAD@std@@YAXAAPAD@Z 10001290 f i misc.obj
 0001:00000290       ??$_Destroy_range@V?$allocator@H@std@@@std@@YAXPAHQAHAAV?$allocator@H@0@@Z 10001290 f i aimbot.obj
 0001:00000290       ??$_Adl_verify_range@PADPAD@std@@YAXABQAD0@Z 10001290 f i visuals.obj
 0001:00000290       ??$_Pocca@V?$allocator@D@std@@@std@@YAXAAV?$allocator@D@0@ABV10@@Z 10001290 f i menu.obj
 0001:00000290       ??$_Destroy_range@V?$allocator@U?$pair@PAVc_baseentity@@Vvector@@@std@@@std@@@std@@YAXPAU?$pair@PAVc_baseentity@@Vvector@@@0@QAU10@AAV?$allocator@U?$pair@PAVc_baseentity@@Vvector@@@std@@@0@@Z 10001290 f i resolver.obj
 0001:000002a0       ??$_Emplace_back_with_unused_capacity@H@?$vector@HV?$allocator@H@std@@@std@@AAEX$$QAH@Z 100012a0 f i aimbot.obj
 0001:00000320       ??$_Emplace_reallocate@H@?$vector@HV?$allocator@H@std@@@std@@QAEPAHQAH$$QAH@Z 10001320 f i aimbot.obj
 0001:000004f0       ??$_Get_size_of_n@$03@std@@YAII@Z 100014f0 f i aimbot.obj
 0001:00000520       ??$_Unfancy@D@std@@YAPADPAD@Z 10001520 f i misc.obj
 0001:00000520       ??$addressof@V?$basic_stringbuf@DU?$char_traits@D@std@@V?$allocator@D@2@@std@@@std@@YAPAV?$basic_stringbuf@DU?$char_traits@D@std@@V?$allocator@D@2@@0@AAV10@@Z 10001520 f i visuals.obj
 0001:00000520       ??$move@AAV?$allocator@D@std@@@std@@YA$$QAV?$allocator@D@0@AAV10@@Z 10001520 f i visuals.obj
 0001:00000520       ??$_Get_unwrapped@H@std@@YAPAHQAH@Z 10001520 f i aimbot.obj
 0001:00000520       ??$_Get_unwrapped@D@std@@YAPADQAD@Z 10001520 f i visuals.obj
 0001:00000520       ??$addressof@$$CBV?$_String_val@U?$_Simple_types@D@std@@@std@@@std@@YAPBV?$_String_val@U?$_Simple_types@D@std@@@0@ABV10@@Z 10001520 f i visuals.obj
 0001:00000520       ??$forward@ABQAD@std@@YAABQADABQAD@Z 10001520 f i misc.obj
 0001:00000520       ??$_Unfancy@H@std@@YAPAHPAH@Z 10001520 f i aimbot.obj
 0001:00000520       ??$addressof@$$CBV?$basic_string@DU?$char_traits@D@std@@V?$allocator@D@2@@std@@@std@@YAPBV?$basic_string@DU?$char_traits@D@std@@V?$allocator@D@2@@0@ABV10@@Z 10001520 f i menu.obj
 0001:00000520       ??$_Convert_size@I@std@@YAII@Z 10001520 f i misc.obj
 0001:00000520       ??$forward@AAPAVvmt_hook@@@std@@YAAAPAVvmt_hook@@AAPAV1@@Z 10001520 f i setup.obj
 0001:00000520       ??$forward@U?$default_delete@Vvmt_hook@@@std@@@std@@YA$$QAU?$default_delete@Vvmt_hook@@@0@AAU10@@Z 10001520 f i setup.obj
 0001:00000520       ??$move@AAH@std@@YA$$QAHAAH@Z 10001520 f i aimbot.obj
 0001:00000520       ??$forward@V?$allocator@D@std@@@std@@YA$$QAV?$allocator@D@0@AAV10@@Z 10001520 f i visuals.obj
 0001:00000520       ??$addressof@V?$_String_val@U?$_Simple_types@D@std@@@std@@@std@@YAPAV?$_String_val@U?$_Simple_types@D@std@@@0@AAV10@@Z 10001520 f i visuals.obj
 0001:00000520       ??$addressof@D@std@@YAPADAAD@Z 10001520 f i visuals.obj
 0001:00000520       ??$addressof@PAD@std@@YAPAPADAAPAD@Z 10001520 f i misc.obj
 0001:00000520       ??$forward@ABV?$allocator@D@std@@@std@@YAABV?$allocator@D@0@ABV10@@Z 10001520 f i misc.obj
 0001:00000520       ??$forward@H@std@@YA$$QAHAAH@Z 10001520 f i aimbot.obj
 0001:00000520       ??$forward@AAPAV_Facet_base@std@@@std@@YAAAPAV_Facet_base@0@AAPAV10@@Z 10001520 f i visuals.obj
 0001:00000520       ??$addressof@V?$unique_ptr@Vvmt_hook@@U?$default_delete@Vvmt_hook@@@std@@@std@@@std@@YAPAV?$unique_ptr@Vvmt_hook@@U?$default_delete@Vvmt_hook@@@std@@@0@AAV10@@Z 10001520 f i setup.obj
 0001:00000530       ??$_Min_value@I@std@@YAABIABI0@Z 10001530 f i aimbot.obj
 0001:00000560       ??$_Uninitialized_move@PAHV?$allocator@H@std@@@std@@YAPAHQAH0PAHAAV?$allocator@H@0@@Z 10001560 f i aimbot.obj
 0001:000005c0       ??$call_vfunc@P6EKPAX@Z@u@@YAP6EKPAX@ZQAXH@Z 100015c0 f i setup.obj
 0001:000005c0       ??$call_vfunc@P6EPAVuser_cmd@@PAXHH@Z@u@@YAP6EPAVuser_cmd@@PAXHH@ZQAXH@Z 100015c0 f i setup.obj
 0001:000005c0       ??$call_vfunc@P6EXPAXAAVvector@@@Z@u@@YAP6EXPAXAAVvector@@@ZQAXH@Z 100015c0 f i aimbot.obj
 0001:000005c0       ??$call_vfunc@P6EXPAXABUray_t@@IPAVc_baseentity@@PAVgame_trace@@@Z@u@@YAP6EXPAXABUray_t@@IPAVc_baseentity@@PAVgame_trace@@@ZQAXH@Z 100015c0 f i aimbot.obj
 0001:000005c0       ??$call_vfunc@P6EHPAXH@Z@u@@YAP6EHPAXH@ZQAXH@Z 100015c0 f i hooks.obj
 0001:000005c0       ??$call_vfunc@P6EXPAXM@Z@u@@YAP6EXPAXM@ZQAXH@Z 100015c0 f i misc.obj
 0001:000005c0       ??$call_vfunc@P6EPAVclient_class@@PAX@Z@u@@YAP6EPAVclient_class@@PAX@ZQAXH@Z 100015c0 f i aimbot.obj
 0001:000005c0       ??$call_vfunc@P6EPAVweapon_info@@PAX@Z@u@@YAP6EPAVweapon_info@@PAX@ZQAXH@Z 100015c0 f i aimbot.obj
 0001:000005c0       ??$call_vfunc@P6EXPAXVcolor@@@Z@u@@YAP6EXPAXVcolor@@@ZQAXH@Z 100015c0 f i draw.obj
 0001:000005c0       ??$call_vfunc@P6EXPAXPB_WHH@Z@u@@YAP6EXPAXPB_WHH@ZQAXH@Z 100015c0 f i draw.obj
 0001:000005c0       ??$call_vfunc@P6EXPAXPBD@Z@u@@YAP6EXPAXPBD@ZQAXH@Z 100015c0 f i hooks.obj
 0001:000005c0       ??$call_vfunc@P6EPBDPAXI@Z@u@@YAP6EPBDPAXI@ZQAXH@Z 100015c0 f i setup.obj
 0001:000005c0       ??$call_vfunc@P6EMPAX@Z@u@@YAP6EMPAX@ZQAXH@Z 100015c0 f i aimbot.obj
 0001:000005c0       ??$call_vfunc@P6EAAVvector@@PAX@Z@u@@YAP6EAAVvector@@PAX@ZQAXH@Z 100015c0 f i aimbot.obj
 0001:000005c0       ??$call_vfunc@P6EXPAXH@Z@u@@YAP6EXPAXH@ZQAXH@Z 100015c0 f i misc.obj
 0001:000005c0       ??$call_vfunc@P6E_NPAXW4buttoncode_t@@@Z@u@@YAP6E_NPAXW4buttoncode_t@@@ZQAXH@Z 100015c0 f i hvh.obj
 0001:000005c0       ??$call_vfunc@P6EXPAXABUray_t@@IPAVitracefilter@@PAVgame_trace@@@Z@u@@YAP6EXPAXABUray_t@@IPAVitracefilter@@PAVgame_trace@@@ZQAXH@Z 100015c0 f i aimbot.obj
 0001:000005c0       ??$call_vfunc@P6E_NPAXPAY123MHHM@Z@u@@YAP6E_NPAXPAY123MHHM@ZQAXH@Z 100015c0 f i aimbot.obj
 0001:000005c0       ??$call_vfunc@P6EHPAXABVvector@@AAV1@@Z@u@@YAP6EHPAXABVvector@@AAV1@@ZQAXH@Z 100015c0 f i visuals.obj
 0001:000005c0       ??$call_vfunc@P6EPAVinetchannel@@PAX@Z@u@@YAP6EPAVinetchannel@@PAX@ZQAXH@Z 100015c0 f i hvh.obj
 0001:000005c0       ??$call_vfunc@P6EXPAXKPB_WAAH2@Z@u@@YAP6EXPAXKPB_WAAH2@ZQAXH@Z 100015c0 f i visuals.obj
 0001:000005c0       ??$call_vfunc@P6EXPAXKPBDHHHHHHH@Z@u@@YAP6EXPAXKPBDHHHHHHH@ZQAXH@Z 100015c0 f i setup.obj
 0001:000005c0       ??$call_vfunc@P6E_NPAX@Z@u@@YAP6E_NPAX@ZQAXH@Z 100015c0 f i aimbot.obj
 0001:000005c0       ??$call_vfunc@P6EHPAX@Z@u@@YAP6EHPAX@ZQAXH@Z 100015c0 f i aimbot.obj
 0001:000005c0       ??$call_vfunc@P6EXPAXK@Z@u@@YAP6EXPAXK@ZQAXH@Z 100015c0 f i draw.obj
 0001:000005c0       ??$call_vfunc@P6EPAUmodel_t@@PAX@Z@u@@YAP6EPAUmodel_t@@PAX@ZQAXH@Z 100015c0 f i aimbot.obj
 0001:000005c0       ??$call_vfunc@P6E_NPAXHPAUplayer_info_s@@@Z@u@@YAP6E_NPAXHPAUplayer_info_s@@@ZQAXH@Z 100015c0 f i aimbot.obj
 0001:000005c0       ??$call_vfunc@P6EPAXPAX@Z@u@@YAP6EPAXPAX@ZQAXH@Z 100015c0 f i visuals.obj
 0001:000005c0       ??$call_vfunc@P6EXPAXAAH1@Z@u@@YAP6EXPAXAAH1@ZQAXH@Z 100015c0 f i visuals.obj
 0001:000005c0       ??$call_vfunc@P6EXPAXHHHH@Z@u@@YAP6EXPAXHHHH@ZQAXH@Z 100015c0 f i draw.obj
 0001:000005c0       ??$call_vfunc@P6EPAVinetchannelinfo@@PAX@Z@u@@YAP6EPAVinetchannelinfo@@PAX@ZQAXH@Z 100015c0 f i visuals.obj
 0001:000005c0       ??$call_vfunc@P6EXPAXHH@Z@u@@YAP6EXPAXHH@ZQAXH@Z 100015c0 f i draw.obj
 0001:000005d0       ??$construct@HH@?$_Default_allocator_traits@V?$allocator@H@std@@@std@@SAXAAV?$allocator@H@1@QAH$$QAH@Z 100015d0 f i aimbot.obj
 0001:00000600       ??$emplace_back@H@?$vector@HV?$allocator@H@std@@@std@@QAEX$$QAH@Z 10001600 f i aimbot.obj
 0001:00000660       ??0?$_Vector_val@U?$_Simple_types@H@std@@@std@@QAE@XZ 10001660 f i aimbot.obj
 0001:00000660       ??0?$_Vector_val@U?$_Simple_types@U?$pair@PAVc_baseentity@@Vvector@@@std@@@std@@@std@@QAE@XZ 10001660 f i resolver.obj
 0001:00000690       ?_Get_first@?$_Compressed_pair@V?$allocator@H@std@@V?$_Vector_val@U?$_Simple_types@H@std@@@2@$00@std@@QAEAAV?$allocator@H@2@XZ 10001690 f i aimbot.obj
 0001:00000690       ?_Get_first@?$_Compressed_pair@V?$allocator@H@std@@V?$_Vector_val@U?$_Simple_types@H@std@@@2@$00@std@@QBEABV?$allocator@H@2@XZ 10001690 f i aimbot.obj
 0001:00000690       ?_Get_first@?$_Compressed_pair@V?$allocator@D@std@@V?$_String_val@U?$_Simple_types@D@std@@@2@$00@std@@QBEABV?$allocator@D@2@XZ 10001690 f i misc.obj
 0001:00000690       ??0?$allocator@D@std@@QAE@XZ 10001690 f i misc.obj
 0001:00000690       ?_Get_first@?$_Compressed_pair@U?$default_delete@Vvmt_hook@@@std@@PAVvmt_hook@@$00@std@@QAEAAU?$default_delete@Vvmt_hook@@@2@XZ 10001690 f i hooks.obj
 0001:00000690       ?_Get_first@?$_Compressed_pair@V?$allocator@U?$pair@PAVc_baseentity@@Vvector@@@std@@@std@@V?$_Vector_val@U?$_Simple_types@U?$pair@PAVc_baseentity@@Vvector@@@std@@@std@@@2@$00@std@@QAEAAV?$allocator@U?$pair@PAVc_baseentity@@Vvector@@@std@@@2@XZ 10001690 f i resolver.obj
 0001:00000690       ??0?$allocator@U?$pair@PAVc_baseentity@@Vvector@@@std@@@std@@QAE@XZ 10001690 f i resolver.obj
 0001:00000690       ??0_Bxty@?$_String_val@U?$_Simple_types@D@std@@@std@@QAE@XZ 10001690 f i misc.obj
 0001:00000690       ?_Get_first@?$_Compressed_pair@U?$default_delete@V_Facet_base@std@@@std@@PAV_Facet_base@2@$00@std@@QAEAAU?$default_delete@V_Facet_base@std@@@2@XZ 10001690 f i visuals.obj
 0001:00000690       ??0?$allocator@H@std@@QAE@XZ 10001690 f i aimbot.obj
 0001:00000690       ?_Get_first@?$_Compressed_pair@V?$allocator@D@std@@V?$_String_val@U?$_Simple_types@D@std@@@2@$00@std@@QAEAAV?$allocator@D@2@XZ 10001690 f i misc.obj
 0001:000006a0       ??0?$vector@HV?$allocator@H@std@@@std@@QAE@XZ 100016a0 f i aimbot.obj
 0001:000006a0       ??0?$vector@U?$pair@PAVc_baseentity@@Vvector@@@std@@V?$allocator@U?$pair@PAVc_baseentity@@Vvector@@@std@@@2@@std@@QAE@XZ 100016a0 f i resolver.obj
 0001:00000700       ??0bad_alloc@std@@AAE@QBD@Z 10001700 f i aimbot.obj
 0001:00000730       ??0bad_alloc@std@@QAE@ABV01@@Z 10001730 f i aimbot.obj
 0001:00000760       ??0bad_array_new_length@std@@QAE@ABV01@@Z 10001760 f i aimbot.obj
 0001:00000790       ??0bad_array_new_length@std@@QAE@XZ 10001790 f i aimbot.obj
 0001:000007c0       ??0base_trace@@QAE@XZ      100017c0 f i aimbot.obj
 0001:000007f0       ??0exception@std@@QAE@ABV01@@Z 100017f0 f i aimbot.obj
 0001:00000830       ??0exception@std@@QAE@QBDH@Z 10001830 f i aimbot.obj
 0001:00000860       ??0game_trace@@QAE@XZ      10001860 f i aimbot.obj
 0001:00000880       ??0itracefilter@@QAE@XZ    10001880 f i aimbot.obj
 0001:000008a0       ??0vector_aligned@@QAE@XZ  100018a0 f i aimbot.obj
 0001:000008a0       ??0plane_t@@QAE@XZ         100018a0 f i aimbot.obj
 0001:000008c0       ??0ray_t@@QAE@Vvector@@0@Z 100018c0 f i aimbot.obj
 0001:00000910       ??0ray_t@@QAE@XZ           10001910 f i aimbot.obj
 0001:00000960       ??0trace_filter@@QAE@PAVc_baseentity@@W4trace_type_t@@@Z 10001960 f i aimbot.obj
 0001:00000990       ??0vector@@QAE@MMM@Z       10001990 f i aimbot.obj
 0001:000009d0       ??0vector@@QAE@XZ          100019d0 f i aimbot.obj
 0001:000009f0       ??1?$vector@HV?$allocator@H@std@@@std@@QAE@XZ 100019f0 f i aimbot.obj
 0001:00000a10       ??1bad_cast@std@@UAE@XZ    10001a10 f i visuals.obj
 0001:00000a10       ??1bad_alloc@std@@UAE@XZ   10001a10 f i aimbot.obj
 0001:00000a10       ??1runtime_error@std@@UAE@XZ 10001a10 f i hooks.obj
 0001:00000a30       ??1bad_array_new_length@std@@UAE@XZ 10001a30 f i aimbot.obj
 0001:00000a50       ??1exception@std@@UAE@XZ   10001a50 f i aimbot.obj
 0001:00000a80       ??2@YAPAXIPAX@Z            10001a80 f i aimbot.obj
 0001:00000a90       ??4vector_aligned@@QAEAAV0@ABVvector@@@Z 10001a90 f i aimbot.obj
 0001:00000ae0       ??Avector@@QAEAAMH@Z       10001ae0 f i aimbot.obj
 0001:00000b00       ??Avector@@QBEMH@Z         10001b00 f i aimbot.obj
 0001:00000b20       ??Dvector@@QBE?AV0@M@Z     10001b20 f i aimbot.obj
 0001:00000b70       ??Gvector@@QBE?AV0@ABV0@@Z 10001b70 f i aimbot.obj
 0001:00000bd0       ??Hvector@@QBE?AV0@ABV0@@Z 10001bd0 f i aimbot.obj
 0001:00000c30       ??Kvector@@QBE?AV0@M@Z     10001c30 f i aimbot.obj
 0001:00000c80       ??Zvector@@QAEAAV0@ABV0@@Z 10001c80 f i aimbot.obj
 0001:00000ce0       ??_0vector@@QAEAAV0@M@Z    10001ce0 f i aimbot.obj
 0001:00000d30       ??_Ebad_cast@std@@UAEPAXI@Z 10001d30 f i visuals.obj
 0001:00000d30       ??_Ebad_alloc@std@@UAEPAXI@Z 10001d30 f i aimbot.obj
 0001:00000d30       ??_Gbad_alloc@std@@UAEPAXI@Z 10001d30 f i aimbot.obj
 0001:00000d30       ??_Eruntime_error@std@@UAEPAXI@Z 10001d30 f i hooks.obj
 0001:00000d30       ??_Gruntime_error@std@@UAEPAXI@Z 10001d30 f i hooks.obj
 0001:00000d30       ??_Gbad_cast@std@@UAEPAXI@Z 10001d30 f i visuals.obj
 0001:00000d60       ??_Gbad_array_new_length@std@@UAEPAXI@Z 10001d60 f i aimbot.obj
 0001:00000d60       ??_Ebad_array_new_length@std@@UAEPAXI@Z 10001d60 f i aimbot.obj
 0001:00000d90       ??_Gexception@std@@UAEPAXI@Z 10001d90 f i aimbot.obj
 0001:00000d90       ??_Eexception@std@@UAEPAXI@Z 10001d90 f i aimbot.obj
 0001:00000dc0       ??_H@YGXPAXIIP6EPAX0@Z@Z   10001dc0 f i aimbot.obj
 0001:00000df0       ?_Adjust_manually_vector_aligned@std@@YAXAAPAXAAI@Z 10001df0 f i aimbot.obj
 0001:00000e60       ?_Alloc_proxy@_Container_base0@std@@QAEXABU_Fake_allocator@2@@Z 10001e60 f i aimbot.obj
 0001:00000e70       ?_Allocate@_Default_allocate_traits@std@@SAPAXI@Z 10001e70 f i aimbot.obj
 0001:00000e90       ?_Calculate_growth@?$vector@HV?$allocator@H@std@@@std@@ABEII@Z 10001e90 f i aimbot.obj
 0001:00000ee0       ?_Change_array@?$vector@HV?$allocator@H@std@@@std@@AAEXQAHII@Z 10001ee0 f i aimbot.obj
 0001:00000f80       ?_Destroy@?$vector@HV?$allocator@H@std@@@std@@AAEXPAH0@Z 10001f80 f i aimbot.obj
 0001:00000f80       ?_Destroy@?$vector@U?$pair@PAVc_baseentity@@Vvector@@@std@@V?$allocator@U?$pair@PAVc_baseentity@@Vvector@@@std@@@2@@std@@AAEXPAU?$pair@PAVc_baseentity@@Vvector@@@2@0@Z 10001f80 f i resolver.obj
 0001:00000fb0       ?_Getal@?$vector@HV?$allocator@H@std@@@std@@ABEABV?$allocator@H@2@XZ 10001fb0 f i aimbot.obj
 0001:00000fb0       ?_Getal@?$basic_string@DU?$char_traits@D@std@@V?$allocator@D@2@@std@@AAEAAV?$allocator@D@2@XZ 10001fb0 f i misc.obj
 0001:00000fb0       ?_Getal@?$vector@HV?$allocator@H@std@@@std@@AAEAAV?$allocator@H@2@XZ 10001fb0 f i aimbot.obj
 0001:00000fb0       ?_Getal@?$vector@U?$pair@PAVc_baseentity@@Vvector@@@std@@V?$allocator@U?$pair@PAVc_baseentity@@Vvector@@@std@@@2@@std@@AAEAAV?$allocator@U?$pair@PAVc_baseentity@@Vvector@@@std@@@2@XZ 10001fb0 f i resolver.obj
 0001:00000fb0       ?_Getal@?$basic_string@DU?$char_traits@D@std@@V?$allocator@D@2@@std@@ABEABV?$allocator@D@2@XZ 10001fb0 f i misc.obj
 0001:00000fd0       ?_Release@_Fake_proxy_ptr_impl@std@@QAEXXZ 10001fd0 f i misc.obj
 0001:00000fd0       ?_Orphan_all@_Container_base0@std@@QAEXXZ 10001fd0 f i aimbot.obj
 0001:00000fd0       ??1address@@QAE@XZ         10001fd0 f i setup.obj
 0001:00000fd0       ??1_Bxty@?$_String_val@U?$_Simple_types@D@std@@@std@@QAE@XZ 10001fd0 f i misc.obj
 0001:00000fe0       ?_Orphan_range@?$vector@HV?$allocator@H@std@@@std@@ABEXPAH0@Z 10001fe0 f i aimbot.obj
 0001:00001000       ?_Throw_bad_array_new_length@std@@YAXXZ 10002000 f i aimbot.obj
 0001:00001020       ?_Tidy@?$vector@HV?$allocator@H@std@@@std@@AAEXXZ 10002020 f i aimbot.obj
 0001:000010e0       ?_Umove@?$vector@HV?$allocator@H@std@@@std@@AAEPAHPAH00@Z 100020e0 f i aimbot.obj
 0001:00001110       ?_Umove_if_noexcept1@?$vector@HV?$allocator@H@std@@@std@@AAEXPAH00U?$integral_constant@_N$00@2@@Z 10002110 f i aimbot.obj
 0001:00001140       ?_Umove_if_noexcept@?$vector@HV?$allocator@H@std@@@std@@AAEXPAH00@Z 10002140 f i aimbot.obj
 0001:00001170       ?_Unchecked_begin@?$vector@HV?$allocator@H@std@@@std@@QAEPAHXZ 10002170 f i aimbot.obj
 0001:00001170       ??Baddress@@QAEPBXXZ       10002170 f i setup.obj
 0001:00001170       ??Baddress@@QAEIXZ         10002170 f i setup.obj
 0001:00001170       ??$as@PAVclient_state@@@address@@QBEPAVclient_state@@XZ 10002170 f i setup.obj
 0001:00001170       ??C?$unique_ptr@Vvmt_hook@@U?$default_delete@Vvmt_hook@@@std@@@std@@QBEPAVvmt_hook@@XZ 10002170 f i setup.obj
 0001:00001180       ?_Unchecked_end@?$vector@HV?$allocator@H@std@@@std@@QAEPAHXZ 10002180 f i aimbot.obj
 0001:000011a0       ?_Xlength@?$vector@HV?$allocator@H@std@@@std@@CAXXZ 100021a0 f i aimbot.obj
 0001:000011b0       ?allocate@?$allocator@H@std@@QAEPAHI@Z 100021b0 f i aimbot.obj
 0001:000011e0       ?angle_normalize@u@@YAXAAVvector@@@Z 100021e0 f i aimbot.obj
 0001:00001290       ?angle_vectors@@YAXABVvector@@PAV1@@Z 10002290 f i aimbot.obj
 0001:00001290       ?angle_vectors@u@@YAXABVvector@@PAV2@@Z 10002290 f i aimbot.obj
 0001:00001380       ?angle_vectors@u@@YAXABVvector@@PAV2@11@Z 10002380 f i aimbot.obj
 0001:00001550       ?can_shoot@a@@YA_NXZ       10002550 f   aimbot.obj
 0001:00001600       ?capacity@?$vector@HV?$allocator@H@std@@@std@@QBEIXZ 10002600 f i aimbot.obj
 0001:00001630       ?clip1@base_weapon@@QAEHXZ 10002630 f i aimbot.obj
 0001:00001650       ?clip_ray_to_entity@ienginetrace@@QAEXABUray_t@@IPAVc_baseentity@@PAVgame_trace@@@Z 10002650 f i aimbot.obj
 0001:00001680       ?cos@@YAMM@Z               10002680 f i aimbot.obj
 0001:000016a0       ?cross_product@@YA?AVvector@@ABV1@0@Z 100026a0 f i aimbot.obj
 0001:00001730       ?deallocate@?$allocator@H@std@@QAEXQAHI@Z 10002730 f i aimbot.obj
 0001:00001750       ?degree_to_radian@u@@YAMM@Z 10002750 f i aimbot.obj
 0001:00001770       ?do_aimbot@a@@YAXXZ        10002770 f   aimbot.obj
 0001:00001c10       ?do_auto_revolver@a@@YAXXZ 10002c10 f   aimbot.obj
 0001:00001d20       ?do_auto_stop@a@@YAXXZ     10002d20 f   aimbot.obj
 0001:00001e70       ?dot_product@@YAMABVvector@@0@Z 10002e70 f i aimbot.obj
 0001:00001ec0       ?find_signature@u@@YA_KPBD0@Z 10002ec0 f i aimbot.obj
 0001:000020f0       ?get_abs_origin@c_baseentity@@QAEAAVvector@@XZ 100030f0 f i aimbot.obj
 0001:00002110       ?get_aim_punch_angle@c_baseentity@@QAE?AVvector@@XZ 10003110 f i aimbot.obj
 0001:00002140       ?get_client_class@c_baseentity@@QAEPAVclient_class@@XZ 10003140 f i aimbot.obj
 0001:00002170       ?get_client_networkable@c_baseentity@@QAEPAXXZ 10003170 f i aimbot.obj
 0001:00002190       ?get_client_renderable@c_baseentity@@QAEPAXXZ 10003190 f i aimbot.obj
 0001:000021b0       ?get_cs_wpn_info@base_weapon@@QAEPAVweapon_info@@XZ 100031b0 f i aimbot.obj
 0001:000021e0       ?get_distance@u@@YAMVvector@@0@Z 100031e0 f i aimbot.obj
 0001:00002220       ?get_eye_position@c_baseentity@@QAE?AVvector@@XZ 10003220 f i aimbot.obj
 0001:00002250       ?get_fire_ready_time@base_weapon@@QAEMXZ 10003250 f i aimbot.obj
 0001:00002270       ?get_flags@c_baseentity@@QAEHXZ 10003270 f i aimbot.obj
 0001:00002290       ?get_health@c_baseentity@@QAEHXZ 10003290 f i aimbot.obj
 0001:000022b0       ?get_hitbox@mstudiohitboxset_t@@QAEPAUmstudiobbox_t@@H@Z 100032b0 f i aimbot.obj
 0001:000022e0       ?get_hitbox_pos@a@@YA?AVvector@@PAVc_baseentity@@H@Z 100032e0 f   aimbot.obj
 0001:000024f0       ?get_hitbox_set@studiohdr_t@@QAEPAUmstudiohitboxset_t@@H@Z 100034f0 f i aimbot.obj
 0001:00002530       ?get_hitboxes@a@@YAHPAVc_baseentity@@@Z 10003530 f   aimbot.obj
 0001:00002940       ?get_inaccuracy@base_weapon@@QAEMXZ 10003940 f i aimbot.obj
 0001:00002970       ?get_index@c_baseentity@@QAEHXZ 10003970 f i aimbot.obj
 0001:00002990       ?get_life_state@c_baseentity@@QAEEXZ 10003990 f i aimbot.obj
 0001:000029b0       ?get_model@c_baseentity@@QAEPAUmodel_t@@XZ 100039b0 f i aimbot.obj
 0001:000029e0       ?get_player_info@ivengineclient@@QAE_NHPAUplayer_info_s@@@Z 100039e0 f i aimbot.obj
 0001:00002a10       ?get_spread@base_weapon@@QAEMXZ 10003a10 f i aimbot.obj
 0001:00002a40       ?get_target@a@@YAHXZ       10003a40 f   aimbot.obj
 0001:00002e40       ?get_team_num@c_baseentity@@QAEHXZ 10003e40 f i aimbot.obj
 0001:00002e60       ?get_tick_base@c_baseentity@@QAEHXZ 10003e60 f i aimbot.obj
 0001:00002e80       ?get_trace_type@trace_filter@@UBE?AW4trace_type_t@@XZ 10003e80 f i aimbot.obj
 0001:00002e90       ?get_velocity@c_baseentity@@QAE?AVvector@@XZ 10003e90 f i aimbot.obj
 0001:00002ec0       ?get_view_angles@ivengineclient@@QAEXAAVvector@@@Z 10003ec0 f i aimbot.obj
 0001:00002ef0       ?hit_chance@a@@YA_NPAVc_baseentity@@PAVbase_weapon@@Vvector@@2H@Z 10003ef0 f   aimbot.obj
 0001:00003450       ?infinity@?$numeric_limits@M@std@@SAMXZ 10004450 f i aimbot.obj
 0001:00003460       ?init@ray_t@@QAEXABVvector@@0@Z 10004460 f i aimbot.obj
 0001:00003540       ?init@vector@@QAEXMMM@Z    10004540 f i aimbot.obj
 0001:00003580       ?invalidate@vector@@QAEXXZ 10004580 f i aimbot.obj
 0001:000035c0       ?is_dormant@c_baseentity@@QAE_NXZ 100045c0 f i aimbot.obj
 0001:000035f0       ?is_gun@base_weapon@@QAE_NXZ 100045f0 f i aimbot.obj
 0001:00003660       ?is_immune@c_baseentity@@QAE_NXZ 10004660 f i aimbot.obj
 0001:00003680       ?is_reloading@base_weapon@@QAE_NXZ 10004680 f i aimbot.obj
 0001:00003730       ?is_scoped@c_baseentity@@QAE_NXZ 10004730 f i aimbot.obj
 0001:00003750       ?is_visible@a@@YA_NPAVc_baseentity@@Vvector@@1@Z 10004750 f   aimbot.obj
 0001:00003810       ?is_visible_length@a@@YA_NPAVc_baseentity@@Vvector@@1@Z 10004810 f   aimbot.obj
 0001:00003a40       ?item_definition_index@base_weapon@@QAEFXZ 10004a40 f i aimbot.obj
 0001:00003a60       ?length2d@vector@@QBEMXZ   10004a60 f i aimbot.obj
 0001:00003aa0       ?length@vector@@QBEMXZ     10004aa0 f i aimbot.obj
 0001:00003af0       ?length_sqr@vector@@QBEMXZ 10004af0 f i aimbot.obj
 0001:00003b40       ?max@?$numeric_limits@H@std@@SAHXZ 10004b40 f i aimbot.obj
 0001:00003b50       ?max_size@?$_Default_allocator_traits@V?$allocator@H@std@@@std@@SAIABV?$allocator@H@2@@Z 10004b50 f i aimbot.obj
 0001:00003b60       ?max_size@?$vector@HV?$allocator@H@std@@@std@@QBEIXZ 10004b60 f i aimbot.obj
 0001:00003ba0       ?next_primary_attack@base_weapon@@QAEMXZ 10004ba0 f i aimbot.obj
 0001:00003bc0       ?normalize@vector@@QAE?AV1@XZ 10004bc0 f i aimbot.obj
 0001:00003c70       ?normalize_in_place@vector@@QAEMXZ 10004c70 f i aimbot.obj
 0001:00003d30       ?push_back@?$vector@HV?$allocator@H@std@@@std@@QAEX$$QAH@Z 10004d30 f i aimbot.obj
 0001:00003d60       ?random_float@u@@YAMMM@Z   10004d60 f i aimbot.obj
 0001:00003de0       ?set_view_angles@ivengineclient@@QAEXAAVvector@@@Z 10004de0 f i aimbot.obj
 0001:00003e10       ?setup_bones@c_baseentity@@QAE_NPAY123MHHM@Z 10004e10 f i aimbot.obj
 0001:00003e60       ?should_hit_entity@trace_filter@@UAE_NPAXH@Z 10004e60 f i aimbot.obj
 0001:00003e90       ?sin@@YAMM@Z               10004e90 f i aimbot.obj
 0001:00003eb0       ?sin_cos@u@@YAXMPAM0@Z     10004eb0 f i aimbot.obj
 0001:00003ef0       ?sqrt@@YAMM@Z              10004ef0 f i aimbot.obj
 0001:00003f10       ?trace_ray@ienginetrace@@QAEXABUray_t@@IPAVitracefilter@@PAVgame_trace@@@Z 10004f10 f i aimbot.obj
 0001:00003f50       ?vector_angles@@YAXABVvector@@AAV1@1@Z 10004f50 f i aimbot.obj
 0001:00004120       ?vector_angles@@YAXABVvector@@AAV1@@Z 10005120 f i aimbot.obj
 0001:00004280       ?vector_copy@@YAXABVvector@@AAV1@@Z 10005280 f i aimbot.obj
 0001:000042b0       ?vector_normalize@@YAMAAVvector@@@Z 100052b0 f i aimbot.obj
 0001:00004310       ?vector_subtract@@YAXABVvector@@0AAV1@@Z 10005310 f i aimbot.obj
 0001:00004360       ?vector_transform@u@@YAXVvector@@QAY03$$CBMAAV2@@Z 10005360 f i aimbot.obj
 0001:00004560       ?what@exception@std@@UBEPBDXZ 10005560 f i aimbot.obj
 0001:00004590       _atan2f                    10005590 f i aimbot.obj
 0001:000045d0       _cosf                      100055d0 f i aimbot.obj
 0001:000045f0       _sinf                      100055f0 f i aimbot.obj
 0001:00004610       _sqrtf                     10005610 f i aimbot.obj
 0001:00004630       ?anti_aim@hvh@@YAXAA_N@Z   10005630 f   hvh.obj
 0001:00004960       ?fake_duck@hvh@@YAXAA_N@Z  10005960 f   hvh.obj
 0001:00004a10       ?fake_lag@hvh@@YAXAA_N@Z   10005a10 f   hvh.obj
 0001:00004a80       ?fake_walk@hvh@@YAXAA_N@Z  10005a80 f   hvh.obj
 0001:00004b90       ?get_anim_state@c_baseentity@@QAEPAUc_animstate@@XZ 10005b90 f i hvh.obj
 0001:00004bb0       ?get_current_time@hvh@@YAMPAVuser_cmd@@@Z 10005bb0 f   hvh.obj
 0001:00004c20       ?get_direction@hvh@@YAMXZ  10005c20 f   hvh.obj
 0001:00004c50       ?get_lower_body_yaw@c_baseentity@@QAEMXZ 10005c50 f i hvh.obj
 0001:00004c70       ?get_max_desync_delta@c_baseentity@@QAEMXZ 10005c70 f i hvh.obj
 0001:00004e40       ?get_move_type@c_baseentity@@QAE?AW4movetype_t@@XZ 10005e40 f i hvh.obj
 0001:00004e60       ?get_net_channel_info@ivengineclient@@QAEPAVinetchannelinfo@@XZ 10005e60 f i visuals.obj
 0001:00004e60       ?get_net_channel@ivengineclient@@QAEPAVinetchannel@@XZ 10005e60 f i hvh.obj
 0001:00004e80       ?get_pitch@hvh@@YAMXZ      10005e80 f   hvh.obj
 0001:00004f00       ?is_button_down@iinputsystem@@QAE_NW4buttoncode_t@@@Z 10005f00 f i hvh.obj
 0001:00004f30       ?is_voice_recordering@ivengineclient@@QAE_NXZ 10005f30 f i hvh.obj
 0001:00005000       ?round@@YAMM@Z             10006000 f i hvh.obj
 0001:00005020       ?should_break_lby@hvh@@YA_NXZ 10006020 f   hvh.obj
 0001:000050d0       ??$?0$$V@?$_Compressed_pair@V?$allocator@D@std@@V?$_String_val@U?$_Simple_types@D@std@@@2@$00@std@@QAE@U_Zero_then_variadic_args_t@1@@Z 100060d0 f i misc.obj
 0001:000050f0       ??$?0ABV?$allocator@D@std@@$$V@?$_Compressed_pair@V?$allocator@D@std@@V?$_String_val@U?$_Simple_types@D@std@@@2@$00@std@@QAE@U_One_then_variadic_args_t@1@ABV?$allocator@D@1@@Z 100060f0 f i misc.obj
 0001:000050f0       ??$?0V?$allocator@D@std@@$$V@?$_Compressed_pair@V?$allocator@D@std@@V?$_String_val@U?$_Simple_types@D@std@@@2@$00@std@@QAE@U_One_then_variadic_args_t@1@$$QAV?$allocator@D@1@@Z 100060f0 f i visuals.obj
 0001:00005120       ??$_Construct_in_place@PADABQAD@std@@YAXAAPADABQAD@Z 10006120 f i misc.obj
 0001:00005160       ??$_Get_size_of_n@$00@std@@YAII@Z 10006160 f i misc.obj
 0001:00005170       ??$_Max_value@PAD@std@@YAABQADABQAD0@Z 10006170 f i visuals.obj
 0001:00005170       ??$_Max_value@I@std@@YAABIABI0@Z 10006170 f i misc.obj
 0001:000051a0       ??$_Reallocate_for@V<lambda_9366063389c5f42a00a5088cf24e69de>@@PBD@?$basic_string@DU?$char_traits@D@std@@V?$allocator@D@2@@std@@AAEAAV01@IV<lambda_9366063389c5f42a00a5088cf24e69de>@@PBD@Z 100061a0 f i misc.obj
 0001:00005270       ??$clamp@H@u@@YAHABH00@Z   10006270 f i misc.obj
 0001:000052a0       ??$maximum@H@u@@YAHABH0@Z  100062a0 f i misc.obj
 0001:000052d0       ??$minimum@H@u@@YAHABH0@Z  100062d0 f i misc.obj
 0001:00005300       ??0?$_String_val@U?$_Simple_types@D@std@@@std@@QAE@XZ 10006300 f i misc.obj
 0001:00005330       ??0?$basic_string@DU?$char_traits@D@std@@V?$allocator@D@2@@std@@QAE@ABV01@IIABV?$allocator@D@1@@Z 10006330 f i misc.obj
 0001:000053d0       ??0?$basic_string@DU?$char_traits@D@std@@V?$allocator@D@2@@std@@QAE@QBD@Z 100063d0 f i misc.obj
 0001:00005460       ??0_Fake_proxy_ptr_impl@std@@QAE@ABU_Fake_allocator@1@ABU_Container_base0@1@@Z 10006460 f i misc.obj
 0001:00005470       ??1?$_Compressed_pair@V?$allocator@D@std@@V?$_String_val@U?$_Simple_types@D@std@@@2@$00@std@@QAE@XZ 10006470 f i misc.obj
 0001:00005490       ??1?$_String_val@U?$_Simple_types@D@std@@@std@@QAE@XZ 10006490 f i misc.obj
 0001:000054b0       ??1?$basic_string@DU?$char_traits@D@std@@V?$allocator@D@2@@std@@QAE@XZ 100064b0 f i misc.obj
 0001:000054d0       ??R<lambda_9366063389c5f42a00a5088cf24e69de>@@QBEXQADIQBD@Z 100064d0 f i misc.obj
 0001:00005510       ?_Calculate_growth@?$basic_string@DU?$char_traits@D@std@@V?$allocator@D@2@@std@@ABEII@Z 10006510 f i misc.obj
 0001:00005540       ?_Calculate_growth@?$basic_string@DU?$char_traits@D@std@@V?$allocator@D@2@@std@@CAIIII@Z 10006540 f i misc.obj
 0001:000055a0       ?_Check_offset@?$_String_val@U?$_Simple_types@D@std@@@std@@QBEXI@Z 100065a0 f i misc.obj
 0001:000055c0       ?_Clamp_suffix_size@?$_String_val@U?$_Simple_types@D@std@@@std@@QBEIII@Z 100065c0 f i misc.obj
 0001:000055f0       ?_Eos@?$basic_string@DU?$char_traits@D@std@@V?$allocator@D@2@@std@@AAEXI@Z 100065f0 f i misc.obj
 0001:00005630       ?_Large_string_engaged@?$_String_val@U?$_Simple_types@D@std@@@std@@QBE_NXZ 10006630 f i misc.obj
 0001:00005660       ?_Myptr@?$_String_val@U?$_Simple_types@D@std@@@std@@QBEPBDXZ 10006660 f i misc.obj
 0001:00005660       ?_Myptr@?$_String_val@U?$_Simple_types@D@std@@@std@@QAEPADXZ 10006660 f i misc.obj
 0001:000056a0       ?_Tidy_deallocate@?$basic_string@DU?$char_traits@D@std@@V?$allocator@D@2@@std@@AAEXXZ 100066a0 f i misc.obj
 0001:00005760       ?_Tidy_init@?$basic_string@DU?$char_traits@D@std@@V?$allocator@D@2@@std@@AAEXXZ 10006760 f i misc.obj
 0001:000057a0       ?_Xlen@?$basic_string@DU?$char_traits@D@std@@V?$allocator@D@2@@std@@CAXXZ 100067a0 f i misc.obj
 0001:000057b0       ?_Xran@?$_String_val@U?$_Simple_types@D@std@@@std@@SAXXZ 100067b0 f i misc.obj
 0001:000057c0       ?allocate@?$allocator@D@std@@QAEPADI@Z 100067c0 f i misc.obj
 0001:000057f0       ?assign@?$_Narrow_char_traits@DH@std@@SAXAADABD@Z 100067f0 f i misc.obj
 0001:00005800       ?assign@?$basic_string@DU?$char_traits@D@std@@V?$allocator@D@2@@std@@QAEAAV12@ABV12@II@Z 10006800 f i misc.obj
 0001:00005850       ?assign@?$basic_string@DU?$char_traits@D@std@@V?$allocator@D@2@@std@@QAEAAV12@QBD@Z 10006850 f i misc.obj
 0001:00005880       ?assign@?$basic_string@DU?$char_traits@D@std@@V?$allocator@D@2@@std@@QAEAAV12@QBDI@Z 10006880 f i misc.obj
 0001:00005900       ?auto_movement@m@@YAXXZ    10006900 f   misc.obj
 0001:00005ab0       ?c_str@?$basic_string@DU?$char_traits@D@std@@V?$allocator@D@2@@std@@QBEPBDXZ 10006ab0 f i misc.obj
 0001:00005ab0       ?data@?$basic_string@DU?$char_traits@D@std@@V?$allocator@D@2@@std@@QBEPBDXZ 10006ab0 f i visuals.obj
 0001:00005af0       ?clan_tag@m@@YAXXZ         10006af0 f   misc.obj
 0001:00005c60       ?clan_tag_og@m@@YAXXZ      10006c60 f   misc.obj
 0001:00005dd0       ?clear@?$basic_string@DU?$char_traits@D@std@@V?$allocator@D@2@@std@@QAEXXZ 10006dd0 f i misc.obj
 0001:00005e10       ?copy@?$_Narrow_char_traits@DH@std@@SAPADQADQBDI@Z 10006e10 f i misc.obj
 0001:00005e30       ?crosshair@m@@YAXXZ        10006e30 f   misc.obj
 0001:00005ff0       ?deallocate@?$allocator@D@std@@QAEXQADI@Z 10006ff0 f i misc.obj
 0001:00006010       ?get_allocator@?$basic_string@DU?$char_traits@D@std@@V?$allocator@D@2@@std@@QBE?AV?$allocator@D@2@XZ 10007010 f i misc.obj
 0001:00006030       ?length@?$_Narrow_char_traits@DH@std@@SAIQBD@Z 10007030 f i misc.obj
 0001:00006070       ?length@?$basic_string@DU?$char_traits@D@std@@V?$allocator@D@2@@std@@QBEIXZ 10007070 f i misc.obj
 0001:00006070       ?size@?$basic_string@DU?$char_traits@D@std@@V?$allocator@D@2@@std@@QBEIXZ 10007070 f i visuals.obj
 0001:00006090       ?eof@?$_Narrow_char_traits@DH@std@@SAHXZ 10007090 f i visuals.obj
 0001:00006090       ?max_size@?$_Default_allocator_traits@V?$allocator@D@std@@@std@@SAIABV?$allocator@D@2@@Z 10007090 f i misc.obj
 0001:000060a0       ?max_size@?$basic_string@DU?$char_traits@D@std@@V?$allocator@D@2@@std@@QBEIXZ 100070a0 f i misc.obj
 0001:00006100       ?move@?$_Narrow_char_traits@DH@std@@SAPADQADQBDI@Z 10007100 f i misc.obj
 0001:00006120       ?set_clan_tag@m@@YAXPBD@Z  10007120 f   misc.obj
 0001:000061d0       ?set_value@convar@@QAEXH@Z 100071d0 f i misc.obj
 0001:00006200       ?set_value@convar@@QAEXM@Z 10007200 f i misc.obj
 0001:00006230       ?substr@?$basic_string@DU?$char_traits@D@std@@V?$allocator@D@2@@std@@QBE?AV12@II@Z 10007230 f i misc.obj
 0001:00006280       ?viewmodel@m@@YAXXZ        10007280 f   misc.obj
 0001:000064c0       ??1?$vector@U?$pair@PAVc_baseentity@@Vvector@@@std@@V?$allocator@U?$pair@PAVc_baseentity@@Vvector@@@std@@@2@@std@@QAE@XZ 100074c0 f i resolver.obj
 0001:000064e0       ?_Tidy@?$vector@U?$pair@PAVc_baseentity@@Vvector@@@std@@V?$allocator@U?$pair@PAVc_baseentity@@Vvector@@@std@@@2@@std@@AAEXXZ 100074e0 f i resolver.obj
 0001:000065a0       ?deallocate@?$allocator@U?$pair@PAVc_baseentity@@Vvector@@@std@@@std@@QAEXQAU?$pair@PAVc_baseentity@@Vvector@@@2@I@Z 100075a0 f i resolver.obj
 0001:000065c0       ?get_duck_amount@c_baseentity@@QAEMXZ 100075c0 f i resolver.obj
 0001:000065e0       ?get_duck_speed@c_baseentity@@QAEMXZ 100075e0 f i resolver.obj
 0001:00006600       ?get_eye_angles_ptr@c_baseentity@@QAEPAVvector@@XZ 10007600 f i resolver.obj
 0001:00006620       ?is_fake_ducking@resolver@@YA_NPAVc_baseentity@@@Z 10007620 f   resolver.obj
 0001:00006690       ?resolver@0@YAXW4client_frame_stage_t@@@Z 10007690 f   resolver.obj
 0001:00006810       ??$?0AAPAVvmt_hook@@@?$_Compressed_pair@U?$default_delete@Vvmt_hook@@@std@@PAVvmt_hook@@$00@std@@QAE@U_Zero_then_variadic_args_t@1@AAPAVvmt_hook@@@Z 10007810 f i setup.obj
 0001:00006810       ??$?0AAPAV_Facet_base@std@@@?$_Compressed_pair@U?$default_delete@V_Facet_base@std@@@std@@PAV_Facet_base@2@$00@std@@QAE@U_Zero_then_variadic_args_t@1@AAPAV_Facet_base@1@@Z 10007810 f i visuals.obj
 0001:00006840       ??$?0PADX@?$basic_string@DU?$char_traits@D@std@@V?$allocator@D@2@@std@@QAE@PAD0ABV?$allocator@D@1@@Z 10007840 f i visuals.obj
 0001:00006900       ??$?0U?$default_delete@V_Facet_base@std@@@std@@$0A@@?$unique_ptr@V_Facet_base@std@@U?$default_delete@V_Facet_base@std@@@2@@std@@QAE@PAV_Facet_base@1@@Z 10007900 f i visuals.obj
 0001:00006900       ??$?0U?$default_delete@Vvmt_hook@@@std@@$0A@@?$unique_ptr@Vvmt_hook@@U?$default_delete@Vvmt_hook@@@std@@@std@@QAE@PAVvmt_hook@@@Z 10007900 f i setup.obj
 0001:00006950       ??$?6DU?$char_traits@D@std@@D@std@@YAAAV?$basic_ostream@DU?$char_traits@D@std@@@0@AAV10@ABU?$_Timeobj@DPBUtm@@@0@@Z 10007950 f i visuals.obj
 0001:00006af0       ??$?6DU?$char_traits@D@std@@V?$allocator@D@1@@std@@YAAAV?$basic_ostream@DU?$char_traits@D@std@@@0@AAV10@ABV?$basic_string@DU?$char_traits@D@std@@V?$allocator@D@2@@0@@Z 10007af0 f i visuals.obj
 0001:00006b20       ??$?6U?$char_traits@D@std@@@std@@YAAAV?$basic_ostream@DU?$char_traits@D@std@@@0@AAV10@PBD@Z 10007b20 f i visuals.obj
 0001:00006e50       ??$_Insert_string@DU?$char_traits@D@std@@I@std@@YAAAV?$basic_ostream@DU?$char_traits@D@std@@@0@AAV10@QBDI@Z 10007e50 f i visuals.obj
 0001:00007120       ??$_Integral_to_string@DH@std@@YA?AV?$basic_string@DU?$char_traits@D@std@@V?$allocator@D@2@@0@H@Z 10008120 f i visuals.obj
 0001:000071d0       ??$_Traits_find@U?$char_traits@D@std@@@std@@YAIQBDII0I@Z 100081d0 f i visuals.obj
 0001:00007270       ??$_UIntegral_to_buff@DI@std@@YAPADPADI@Z 10008270 f i visuals.obj
 0001:000072c0       ??$end@D$0BF@@std@@YAPADAAY0BF@D@Z 100082c0 f i visuals.obj
 0001:000072d0       ??$exchange@PAVvmt_hook@@PAV1@@std@@YAPAVvmt_hook@@AAPAV1@$$QAPAV1@@Z 100082d0 f i setup.obj
 0001:000072d0       ??$exchange@PAVvmt_hook@@AAPAV1@@std@@YAPAVvmt_hook@@AAPAV1@0@Z 100082d0 f i setup.obj
 0001:000072d0       ??$exchange@PAV_Facet_base@std@@PAV12@@std@@YAPAV_Facet_base@0@AAPAV10@$$QAPAV10@@Z 100082d0 f i visuals.obj
 0001:000072f0       ??$put_time@D@std@@YA?AU?$_Timeobj@DPBUtm@@@0@PBUtm@@PBD@Z 100082f0 f i visuals.obj
 0001:00007310       ??$use_facet@V?$time_put@DV?$ostreambuf_iterator@DU?$char_traits@D@std@@@std@@@std@@@std@@YAABV?$time_put@DV?$ostreambuf_iterator@DU?$char_traits@D@std@@@std@@@0@ABVlocale@0@@Z 10008310 f i visuals.obj
 0001:00007420       ??0?$_Timeobj@DPBUtm@@@std@@QAE@PBUtm@@PBD@Z 10008420 f i visuals.obj
 0001:00007470       ??0?$basic_string@DU?$char_traits@D@std@@V?$allocator@D@2@@std@@QAE@$$QAV01@@Z 10008470 f i visuals.obj
 0001:000074f0       ??0?$basic_string@DU?$char_traits@D@std@@V?$allocator@D@2@@std@@QAE@ABV?$allocator@D@1@@Z 100084f0 f i visuals.obj
 0001:00007560       ??0?$basic_string@DU?$char_traits@D@std@@V?$allocator@D@2@@std@@QAE@XZ 10008560 f i visuals.obj
 0001:000075c0       ??0?$basic_stringbuf@DU?$char_traits@D@std@@V?$allocator@D@2@@std@@QAE@H@Z 100085c0 f i visuals.obj
 0001:00007650       ??0?$basic_stringstream@DU?$char_traits@D@std@@V?$allocator@D@2@@std@@QAE@H@Z 10008650 f i visuals.obj
 0001:00007730       ??0?$fpos@U_Mbstatet@@@std@@QAE@_J@Z 10008730 f i visuals.obj
 0001:00007770       ??0?$ostreambuf_iterator@DU?$char_traits@D@std@@@std@@QAE@PAV?$basic_streambuf@DU?$char_traits@D@std@@@1@@Z 10008770 f i visuals.obj
 0001:00007790       ??0_Sentry_base@?$basic_ostream@DU?$char_traits@D@std@@@std@@QAE@AAV12@@Z 10008790 f i visuals.obj
 0001:000077e0       ??0bad_cast@std@@QAE@ABV01@@Z 100087e0 f i visuals.obj
 0001:00007810       ??0bad_cast@std@@QAE@XZ    10008810 f i visuals.obj
 0001:00007840       ??0color@@QAE@HHH@Z        10008840 f i visuals.obj
 0001:00007870       ??0color@@QAE@HHHH@Z       10008870 f i visuals.obj
 0001:000078a0       ??0color@@QAE@XZ           100088a0 f i visuals.obj
 0001:000078c0       ??0sentry@?$basic_ostream@DU?$char_traits@D@std@@@std@@QAE@AAV12@@Z 100088c0 f i visuals.obj
 0001:00007990       ??1?$basic_stringbuf@DU?$char_traits@D@std@@V?$allocator@D@2@@std@@UAE@XZ 10008990 f i visuals.obj
 0001:000079c0       ??1?$basic_stringstream@DU?$char_traits@D@std@@V?$allocator@D@2@@std@@UAE@XZ 100089c0 f i visuals.obj
 0001:00007a20       ??1?$unique_ptr@V_Facet_base@std@@U?$default_delete@V_Facet_base@std@@@2@@std@@QAE@XZ 10008a20 f i visuals.obj
 0001:00007a50       ??1_Sentry_base@?$basic_ostream@DU?$char_traits@D@std@@@std@@QAE@XZ 10008a50 f i visuals.obj
 0001:00007ac0       ??1locale@std@@QAE@XZ      10008ac0 f i visuals.obj
 0001:00007b10       ??1sentry@?$basic_ostream@DU?$char_traits@D@std@@@std@@QAE@XZ 10008b10 f i visuals.obj
 0001:00007b70       ??4?$basic_string@DU?$char_traits@D@std@@V?$allocator@D@2@@std@@QAEAAV01@QBD@Z 10008b70 f i visuals.obj
 0001:00007b90       ??B?$fpos@U_Mbstatet@@@std@@QBE_JXZ 10008b90 f i visuals.obj
 0001:00007bc0       ??Bsentry@?$basic_ostream@DU?$char_traits@D@std@@@std@@QBE_NXZ 10008bc0 f i visuals.obj
 0001:00007be0       ??R?$default_delete@V_Facet_base@std@@@std@@QBEXPAV_Facet_base@1@@Z 10008be0 f i visuals.obj
 0001:00007c20       ??_D?$basic_stringstream@DU?$char_traits@D@std@@V?$allocator@D@2@@std@@QAEXXZ 10008c20 f i visuals.obj
 0001:00007c42       ??_E?$basic_stringstream@DU?$char_traits@D@std@@V?$allocator@D@2@@std@@$4PPPPPPPM@A@AEPAXI@Z 10008c42 f i visuals.obj
 0001:00007c50       ??_E?$basic_stringbuf@DU?$char_traits@D@std@@V?$allocator@D@2@@std@@UAEPAXI@Z 10008c50 f i visuals.obj
 0001:00007c50       ??_G?$basic_stringbuf@DU?$char_traits@D@std@@V?$allocator@D@2@@std@@UAEPAXI@Z 10008c50 f i visuals.obj
 0001:00007c80       ??_E?$basic_stringstream@DU?$char_traits@D@std@@V?$allocator@D@2@@std@@UAEPAXI@Z 10008c80 f i visuals.obj
 0001:00007c80       ??_G?$basic_stringstream@DU?$char_traits@D@std@@V?$allocator@D@2@@std@@UAEPAXI@Z 10008c80 f i visuals.obj
 0001:00007cc0       ?_Construct@?$basic_string@DU?$char_traits@D@std@@V?$allocator@D@2@@std@@QAEXQAD0Urandom_access_iterator_tag@2@@Z 10008cc0 f i visuals.obj
 0001:00007d00       ?_Getfacet@locale@std@@QBEPBVfacet@12@I@Z 10008d00 f i visuals.obj
 0001:00007d80       ?_Getstate@?$basic_stringbuf@DU?$char_traits@D@std@@V?$allocator@D@2@@std@@CAHH@Z 10008d80 f i visuals.obj
 0001:00007de0       ?_Memcpy_val_from@?$basic_string@DU?$char_traits@D@std@@V?$allocator@D@2@@std@@AAEXABV12@@Z 10008de0 f i visuals.obj
 0001:00007e40       ?_Take_contents@?$basic_string@DU?$char_traits@D@std@@V?$allocator@D@2@@std@@AAEXAAV12@U?$integral_constant@_N$00@2@@Z 10008e40 f i visuals.obj
 0001:00007e70       ?_Throw_bad_cast@std@@YAXXZ 10008e70 f i visuals.obj
 0001:00007e90       ?_Tidy@?$basic_stringbuf@DU?$char_traits@D@std@@V?$allocator@D@2@@std@@IAEXXZ 10008e90 f i visuals.obj
 0001:00007f70       ?aa_indicator@v@@YAXXZ     10008f70 f   visuals.obj
 0001:000080a0       ?arrows@v@@YAXXZ           100090a0 f   visuals.obj
 0001:000084c0       ?b@color@@QBEHXZ           100094c0 f i visuals.obj
 0001:000084e0       ?black@color@@SA?AV1@H@Z   100094e0 f i visuals.obj
 0001:00008500       ?blue@color@@SA?AV1@H@Z    10009500 f i visuals.obj
 0001:00008520       ?compare@?$_Narrow_char_traits@DH@std@@SAHQBD0I@Z 10009520 f i visuals.obj
 0001:00008550       ?dot@vector@@QBEMABV1@@Z   10009550 f i visuals.obj
 0001:000085a0       ?draw_3d_box@v@@YAXABVvector@@0Vcolor@@@Z 100095a0 f   visuals.obj
 0001:00008b90       ?draw_dynamic_box@v@@YAXPAVc_baseentity@@Uplayer_info_s@@Vcolor@@@Z 10009b90 f   visuals.obj
 0001:00009350       ?entity_loop@v@@YAXXZ      1000a350 f   visuals.obj
 0001:00009490       ?eq@?$_Narrow_char_traits@DH@std@@SA_NABD0@Z 1000a490 f i visuals.obj
 0001:000094c0       ?eq_int_type@?$_Narrow_char_traits@DH@std@@SA_NABH0@Z 1000a4c0 f i visuals.obj
 0001:000094f0       ?erase@?$basic_string@DU?$char_traits@D@std@@V?$allocator@D@2@@std@@QAEAAV12@II@Z 1000a4f0 f i visuals.obj
 0001:00009570       ?failed@?$ostreambuf_iterator@DU?$char_traits@D@std@@@std@@QBE_NXZ 1000a570 f i visuals.obj
 0001:00009580       ?find@?$_Narrow_char_traits@DH@std@@SAPBDQBDIABD@Z 1000a580 f i visuals.obj
 0001:000095b0       ?find@?$basic_string@DU?$char_traits@D@std@@V?$allocator@D@2@@std@@QBEIQBDI@Z 1000a5b0 f i visuals.obj
 0001:00009620       ?fov_circle@v@@YAXXZ       1000a620 f   visuals.obj
 0001:00009730       ?g@color@@QBEHXZ           1000a730 f i visuals.obj
 0001:00009750       ?get_armor@c_baseentity@@QAEHXZ 1000a750 f i visuals.obj
 0001:00009770       ?get_armor_name@c_baseentity@@QAEPBDXZ 1000a770 f i visuals.obj
 0001:000097b0       ?get_collideable@c_baseentity@@QAEPAXXZ 1000a7b0 f i visuals.obj
 0001:000097d0       ?get_collideable_maxs@c_baseentity@@QAEAAVvector@@XZ 1000a7d0 f i visuals.obj
 0001:00009800       ?get_collideable_mins@c_baseentity@@QAEAAVvector@@XZ 1000a800 f i visuals.obj
 0001:00009830       ?get_entity_color@v@@YA?AVcolor@@PAVc_baseentity@@@Z 1000a830 f   visuals.obj
 0001:00009900       ?get_local_player@ivengineclient@@QAEHXZ 1000a900 f i visuals.obj
 0001:00009900       ?get_float@convar@@QAEMXZ  1000a900 f i visuals.obj
 0001:00009920       ?get_max_health@c_baseentity@@QAEHXZ 1000a920 f i visuals.obj
 0001:00009940       ?get_money@c_baseentity@@QAEHXZ 1000a940 f i visuals.obj
 0001:00009960       ?get_name@base_weapon@@QAE?AV?$basic_string@DU?$char_traits@D@std@@V?$allocator@D@2@@std@@XZ 1000a960 f i visuals.obj
 0001:000099a0       ?get_origin@c_baseentity@@QAE?AVvector@@XZ 1000a9a0 f i visuals.obj
 0001:000099d0       ?get_rotated_position@u@@YA?AVvector@@V2@MM@Z 1000a9d0 f i visuals.obj
 0001:00009a60       ?get_screen_size@ivengineclient@@QAEXAAH0@Z 1000aa60 f i visuals.obj
 0001:00009a90       ?get_text_size@isurface@@QAEXKPB_WAAH1@Z 1000aa90 f i visuals.obj
 0001:00009ac0       ?get_text_size_rect@isurface@@QAE?AUtagRECT@@KPBD@Z 1000aac0 f i visuals.obj
 0001:00009bf0       ?green@color@@SA?AV1@H@Z   1000abf0 f i visuals.obj
 0001:00009c10       ?has_helmet@c_baseentity@@QAE_NXZ 1000ac10 f i visuals.obj
 0001:00009c30       ?lby_indicator@v@@YAXXZ    1000ac30 f   visuals.obj
 0001:00009d30       ?night_mode@v@@YAXXZ       1000ad30 f   visuals.obj
 0001:00009ef0       ?not_eof@?$_Narrow_char_traits@DH@std@@SAHABH@Z 1000aef0 f i visuals.obj
 0001:00009f40       ?occlusion@v@@YAXW4client_frame_stage_t@@@Z 1000af40 f   visuals.obj
 0001:00009fd0       ?overflow@?$basic_stringbuf@DU?$char_traits@D@std@@V?$allocator@D@2@@std@@MAEHH@Z 1000afd0 f i visuals.obj
 0001:0000a1d0       ?pbackfail@?$basic_stringbuf@DU?$char_traits@D@std@@V?$allocator@D@2@@std@@MAEHH@Z 1000b1d0 f i visuals.obj
 0001:0000a2b0       ?players@v@@YAXMMMMUplayer_info_s@@PAVc_baseentity@@Vcolor@@KVvector@@33@Z 1000b2b0 f   visuals.obj
 0001:0000b1d0       ?pointer_to@?$pointer_traits@PAD@std@@SAPADAAD@Z 1000c1d0 f i visuals.obj
 0001:0000b1f0       ?projectiles@v@@YAXPAVc_baseentity@@Vcolor@@K@Z 1000c1f0 f   visuals.obj
 0001:0000b490       ?r@color@@QBEHXZ           1000c490 f i visuals.obj
 0001:0000b4b0       ?rainbow@color@@QAE?AV1@MH@Z 1000c4b0 f i visuals.obj
 0001:0000b620       ?red@color@@SA?AV1@H@Z     1000c620 f i visuals.obj
 0001:0000b640       ?release@?$unique_ptr@Vvmt_hook@@U?$default_delete@Vvmt_hook@@@std@@@std@@QAEPAVvmt_hook@@XZ 1000c640 f i setup.obj
 0001:0000b640       ?release@?$unique_ptr@V_Facet_base@std@@U?$default_delete@V_Facet_base@std@@@2@@std@@QAEPAV_Facet_base@2@XZ 1000c640 f i visuals.obj
 0001:0000b690       ?screen_position@ivdebugoverlay@@QAEHABVvector@@AAV2@@Z 1000c690 f i visuals.obj
 0001:0000b6c0       ?seekoff@?$basic_stringbuf@DU?$char_traits@D@std@@V?$allocator@D@2@@std@@MAE?AV?$fpos@U_Mbstatet@@@2@_JHH@Z 1000c6c0 f i visuals.obj
 0001:0000b8b0       ?seekpos@?$basic_stringbuf@DU?$char_traits@D@std@@V?$allocator@D@2@@std@@MAE?AV?$fpos@U_Mbstatet@@@2@V32@H@Z 1000c8b0 f i visuals.obj
 0001:0000b9f0       ?set_color@color@@QAEXHHHH@Z 1000c9f0 f i visuals.obj
 0001:0000ba40       ?str@?$basic_stringbuf@DU?$char_traits@D@std@@V?$allocator@D@2@@std@@QBE?AV?$basic_string@DU?$char_traits@D@std@@V?$allocator@D@2@@2@XZ 1000ca40 f i visuals.obj
 0001:0000bb60       ?str@?$basic_stringstream@DU?$char_traits@D@std@@V?$allocator@D@2@@std@@QBE?AV?$basic_string@DU?$char_traits@D@std@@V?$allocator@D@2@@2@XZ 1000cb60 f i visuals.obj
 0001:0000bba0       ?strstr@@YAPADQADQBD@Z     1000cba0 f i visuals.obj
 0001:0000bbc0       ?tan@@YAMM@Z               1000cbc0 f i visuals.obj
 0001:0000bbe0       ?third_person@v@@YAXW4client_frame_stage_t@@@Z 1000cbe0 f   visuals.obj
 0001:0000bc90       ?third_person_angles@v@@YAXW4client_frame_stage_t@@@Z 1000cc90 f   visuals.obj
 0001:0000bd50       ?to_char_type@?$_Narrow_char_traits@DH@std@@SADABH@Z 1000cd50 f i visuals.obj
 0001:0000bd60       ?to_int_type@?$_Narrow_char_traits@DH@std@@SAHABD@Z 1000cd60 f i visuals.obj
 0001:0000bd70       ?to_string@std@@YA?AV?$basic_string@DU?$char_traits@D@std@@V?$allocator@D@2@@1@H@Z 1000cd70 f i visuals.obj
 0001:0000bda0       ?underflow@?$basic_stringbuf@DU?$char_traits@D@std@@V?$allocator@D@2@@std@@MAEHXZ 1000cda0 f i visuals.obj
 0001:0000be80       ?user@v@@YAXXZ             1000ce80 f   visuals.obj
 0001:0000d1b0       ?vector_transform@v@@YAXABVvector@@AAY123$$CBMAAV2@@Z 1000e1b0 f   visuals.obj
 0001:0000d220       ?w2s@v@@YA_NABVvector@@AAV2@@Z 1000e220 f   visuals.obj
 0001:0000d260       ?watermark@v@@YAXXZ        1000e260 f   visuals.obj
 0001:0000d6b0       ?white@color@@SA?AV1@H@Z   1000e6b0 f i visuals.obj
 0001:0000d700       _tanf                      1000e700 f i visuals.obj
 0001:0000d740       ?corner@d@@YAXHHHH_N0Vcolor@@@Z 1000e740 f   draw.obj
 0001:0000d7f0       ?draw_circle@d@@YAXHHHHVcolor@@@Z 1000e7f0 f   draw.obj
 0001:0000d820       ?draw_corner_box@d@@YAXHHHHVcolor@@@Z 1000e820 f   draw.obj
 0001:0000d8f0       ?draw_filled_rect@d@@YAXHHHHVcolor@@@Z 1000e8f0 f   draw.obj
 0001:0000d930       ?draw_filled_rect@isurface@@QAEXHHHH@Z 1000e930 f i draw.obj
 0001:0000d960       ?draw_line@d@@YAXHHHHVcolor@@@Z 1000e960 f   draw.obj
 0001:0000d990       ?draw_line@isurface@@QAEXHHHH@Z 1000e990 f i draw.obj
 0001:0000d9c0       ?draw_outlined_circle@isurface@@QAEXHHHH@Z 1000e9c0 f i draw.obj
 0001:0000d9f0       ?draw_outlined_rect@d@@YAXHHHHVcolor@@@Z 1000e9f0 f   draw.obj
 0001:0000da30       ?draw_outlined_rect@isurface@@QAEXHHHH@Z 1000ea30 f i draw.obj
 0001:0000da60       ?draw_print_text@isurface@@QAEXPB_WH@Z 1000ea60 f i draw.obj
 0001:0000da90       ?draw_set_color@isurface@@QAEXVcolor@@@Z 1000ea90 f i draw.obj
 0001:0000dac0       ?draw_set_text_color@isurface@@QAEXVcolor@@@Z 1000eac0 f i draw.obj
 0001:0000daf0       ?draw_set_text_font@isurface@@QAEXK@Z 1000eaf0 f i draw.obj
 0001:0000db20       ?draw_set_text_pos@isurface@@QAEXHH@Z 1000eb20 f i draw.obj
 0001:0000db50       ?draw_string@d@@YAXHHVcolor@@KPBDZZ 1000eb50 f   draw.obj
 0001:0000dc70       ?draw_string_box@d@@YAXKPBDHHVcolor@@1@Z 1000ec70 f   draw.obj
 0001:0000dd10       ?draw_string_centered@d@@YAXHHVcolor@@KPBDZZ 1000ed10 f   draw.obj
 0001:0000de70       ___local_stdio_printf_options 1000ee70 f i draw.obj
 0001:0000de80       __vsnprintf                1000ee80 f i draw.obj
 0001:0000dea0       __vsnprintf_l              1000eea0 f i draw.obj
 0001:0000df00       ??$?0$$V@?$_Compressed_pair@U?$default_delete@Vvmt_hook@@@std@@PAVvmt_hook@@$00@std@@QAE@U_Zero_then_variadic_args_t@1@@Z 1000ef00 f i hooks.obj
 0001:0000df20       ??$?0U?$default_delete@Vvmt_hook@@@std@@$0A@@?$unique_ptr@Vvmt_hook@@U?$default_delete@Vvmt_hook@@@std@@@std@@QAE@XZ 1000ef20 f i hooks.obj
 0001:0000df70       ??0exception@std@@QAE@QBD@Z 1000ef70 f i hooks.obj
 0001:0000dfc0       ??0protect_guard@detail@@QAE@PAXII@Z 1000efc0 f i hooks.obj
 0001:0000e020       ??0runtime_error@std@@QAE@ABV01@@Z 1000f020 f i hooks.obj
 0001:0000e050       ??0runtime_error@std@@QAE@PBD@Z 1000f050 f i hooks.obj
 0001:0000e080       ??1?$unique_ptr@Vvmt_hook@@U?$default_delete@Vvmt_hook@@@std@@@std@@QAE@XZ 1000f080 f i hooks.obj
 0001:0000e0b0       ??1protect_guard@detail@@QAE@XZ 1000f0b0 f i hooks.obj
 0001:0000e0e0       ??1vmt_hook@@QAE@XZ        1000f0e0 f i hooks.obj
 0001:0000e140       ??R?$default_delete@Vvmt_hook@@@std@@QBEXPAVvmt_hook@@@Z 1000f140 f i hooks.obj
 0001:0000e180       ??_Gvmt_hook@@QAEPAXI@Z    1000f180 f i hooks.obj
 0001:0000e1b0       ?execute_client_cmd@ivengineclient@@QAEXPBD@Z 1000f1b0 f i hooks.obj
 0001:0000e1e0       ?get_player_for_user_id@ivengineclient@@QAEHH@Z 1000f1e0 f i hooks.obj
 0001:0000e210       ?is_connected@ivengineclient@@QAE_NXZ 1000f210 f i hooks.obj
 0001:0000e230       ?is_in_game@ivengineclient@@QAE_NXZ 1000f230 f i hooks.obj
 0001:0000e250       ?on_fire_event@events@@QAEXPAVigameevent@@@Z 1000f250 f   hooks.obj
 0001:0000e470       ?release@vmt_hook@@QAEXXZ  1000f470 f i hooks.obj
 0001:0000e510       ?start@player_hurt_listener@events@@QAEXXZ 1000f510 f   hooks.obj
 0001:0000e560       ?abs@@YAMM@Z               1000f560 f i util.obj
 0001:0000e580       ?acos@@YAMM@Z              1000f580 f i util.obj
 0001:0000e5a0       ?fix_movement@u@@YAXVvector@@@Z 1000f5a0 f   util.obj
 0001:0000e680       ?fix_movement@u@@YAXVvector@@MM@Z 1000f680 f   util.obj
 0001:0000e850       ?get_fov@u@@YAMABVvector@@00@Z 1000f850 f   util.obj
 0001:0000e900       ?make_vector@u@@YAXABVvector@@AAV2@@Z 1000f900 f i util.obj
 0001:0000e9f0       ?radius_to_degree@u@@YAMM@Z 1000f9f0 f i util.obj
 0001:0000ea10       _acosf                     1000fa10 f i util.obj
 0001:0000ea30       _fabsf                     1000fa30 f i util.obj
 0001:0000ea50       ??0events@@QAE@XZ          1000fa50 f i main.obj
 0001:0000ea70       ??0igameeventlistener@@QAE@XZ 1000fa70 f i main.obj
 0001:0000ea90       ??0player_hurt_listener@events@@QAE@XZ 1000fa90 f i main.obj
 0001:0000eab0       ??1igameeventlistener@@UAE@XZ 1000fab0 f i main.obj
 0001:0000ead0       ??1player_hurt_listener@events@@UAE@XZ 1000fad0 f i main.obj
 0001:0000eaf0       ??_Eigameeventlistener@@UAEPAXI@Z 1000faf0 f i main.obj
 0001:0000eaf0       ??_Gigameeventlistener@@UAEPAXI@Z 1000faf0 f i main.obj
 0001:0000eb20       ??_Eplayer_hurt_listener@events@@UAEPAXI@Z 1000fb20 f i main.obj
 0001:0000eb20       ??_Gplayer_hurt_listener@events@@UAEPAXI@Z 1000fb20 f i main.obj
 0001:0000eb50       ?fire_game_event@player_hurt_listener@events@@UAEXPAVigameevent@@@Z 1000fb50 f i main.obj
 0001:0000eb70       ?get_event_debug_id@igameeventlistener@@UAEHXZ 1000fb70 f i main.obj
 0001:0000eb70       ?get_event_debug_id@player_hurt_listener@events@@UAEHXZ 1000fb70 f i main.obj
 0001:0000eb80       ?init@@YGKPAX@Z            1000fb80 f   main.obj
 0001:0000ebb0       ?initialize@events@@QAEXXZ 1000fbb0 f i main.obj
 0001:0000ebd0       ?singleton@events@@SAPAV1@XZ 1000fbd0 f i main.obj
 0001:0000ec90       _DllMain@12                1000fc90 f   main.obj
 0001:0000ed10       ??0menu_item_t@@QAE@XZ     1000fd10 f i menu.obj
 0001:0000ed30       ??1menu_item_t@@QAE@XZ     1000fd30 f i menu.obj
 0001:0000ed50       ??4?$basic_string@DU?$char_traits@D@std@@V?$allocator@D@2@@std@@QAEAAV01@ABV01@@Z 1000fd50 f i menu.obj
 0001:0000ed90       ?_Copy_assign@?$basic_string@DU?$char_traits@D@std@@V?$allocator@D@2@@std@@AAEXABV12@U?$integral_constant@_N$0A@@2@@Z 1000fd90 f i menu.obj
 0001:0000edd0       ?add_menu_entry@menu@@YAHHV?$basic_string@DU?$char_traits@D@std@@V?$allocator@D@2@@std@@PAHHHH@Z 1000fdd0 f   menu.obj
 0001:0000ee80       ?add_menu_entry@menu@@YAHHV?$basic_string@DU?$char_traits@D@std@@V?$allocator@D@2@@std@@PAMMMM@Z 1000fe80 f   menu.obj
 0001:0000ef40       ?add_menu_entry@menu@@YAHHV?$basic_string@DU?$char_traits@D@std@@V?$allocator@D@2@@std@@PA_N@Z 1000ff40 f   menu.obj
 0001:0000efd0       ?add_menu_entry_int_string@menu@@YAHHV?$basic_string@DU?$char_traits@D@std@@V?$allocator@D@2@@std@@PAHHHH@Z 1000ffd0 f   menu.obj
 0001:0000f080       ?draw_menu@menu@@YAXK@Z    10010080 f   menu.obj
 0001:0000fb80       ?handle_input@menu@@YAHH@Z 10010b80 f   menu.obj
 0001:0000ffc0       ?insert_menu_items@menu@@YAXXZ 10010fc0 f   menu.obj
 0001:00011650       ?get_active_weapon@c_baseentity@@QAEPAVbase_weapon@@XZ 10012650 f   c_baseentity.obj
 0001:00011690       ?CRC32_Final@@YAXPAK@Z     10012690 f   checksum_crc.obj
 0001:000116b0       ?CRC32_Init@@YAXPAK@Z      100126b0 f   checksum_crc.obj
 0001:000116c0       ?CRC32_ProcessBuffer@@YAXPAKPBXH@Z 100126c0 f   checksum_crc.obj
 0001:000119f0       ??$add@Vaddress@@@address@@QBE?AV0@H@Z 100129f0 f i setup.obj
 0001:00011a30       ??$get@Vaddress@@@address@@QAE?AV0@I@Z 10012a30 f i setup.obj
 0001:00011b00       ??$make_unique@Vvmt_hook@@$$V$0A@@std@@YA?AV?$unique_ptr@Vvmt_hook@@U?$default_delete@Vvmt_hook@@@std@@@0@XZ 10012b00 f i setup.obj
 0001:00011b90       ??$to@PAVaddress@@@address@@QBEPAV0@XZ 10012b90 f i setup.obj
 0001:00011bb0       ??0address@@QAE@PBX@Z      10012bb0 f i setup.obj
 0001:00011bb0       ??0address@@QAE@I@Z        10012bb0 f i setup.obj
 0001:00011bd0       ??0vmt_hook@@QAE@XZ        10012bd0 f i setup.obj
 0001:00011c20       ??4?$unique_ptr@Vvmt_hook@@U?$default_delete@Vvmt_hook@@@std@@@std@@QAEAAV01@$$QAV01@@Z 10012c20 f i setup.obj
 0001:00011c70       ??4user_cmd@@QAEAAV0@ABV0@@Z 10012c70 f i setup.obj
 0001:00011d90       ??A?$vector@U?$pair@PAVc_baseentity@@Vvector@@@std@@V?$allocator@U?$pair@PAVc_baseentity@@Vvector@@@std@@@2@@std@@QAEAAU?$pair@PAVc_baseentity@@Vvector@@@1@I@Z 10012d90 f i setup.obj
 0001:00011db0       ??R<lambda_b407f95bd3e7fb468004f6bc124a85a3>@@QBE_NPBXI@Z 10012db0 f i setup.obj
 0001:00011e50       ?clear@?$vector@U?$pair@PAVc_baseentity@@Vvector@@@std@@V?$allocator@U?$pair@PAVc_baseentity@@Vvector@@@std@@@2@@std@@QAEXXZ 10012e50 f i setup.obj
 0001:00011ed0       ?create_font@isurface@@QAEKXZ 10012ed0 f i setup.obj
 0001:00011ef0       ?estimate_vftbl_length@vmt_hook@@AAEIPAI@Z 10012ef0 f i setup.obj
 0001:00011f50       ?get_@address@@AAEII@Z     10012f50 f i setup.obj
 0001:00011fb0       ?get_checksum@user_cmd@@QBEKXZ 10012fb0 f i setup.obj
 0001:00012100       ?get_int@convar@@QBEHXZ    10013100 f i setup.obj
 0001:00012120       ?get_name@ipanel@@QAEPBDI@Z 10013120 f i setup.obj
 0001:00012150       ?get_original_function@vmt_hook@@QAEPAXI@Z 10013150 f i setup.obj
 0001:00012170       ?get_size@glow_object_manager@@QAEHXZ 10013170 f i setup.obj
 0001:00012190       ?get_user_cmd@cinput@@QAEPAVuser_cmd@@H@Z 10013190 f i setup.obj
 0001:000121c0       ?get_verified_cmd@cinput@@QAEPAVverified_user_cmd@@H@Z 100131c0 f i setup.obj
 0001:000121f0       ?get_view_punch_angle@c_baseentity@@QAE?AVvector@@XZ 100131f0 f i setup.obj
 0001:00012220       ?hk_create_move@@YGXHM_NAA_N@Z 10013220 f   setup.obj
 0001:00012550       ?hk_create_move_proxy@s@@YIXPAXHHM_N@Z 10013550 f   setup.obj
 0001:00012570       ?hk_do_post_screen_effects@@YI_NPAViclientmodeshared@@PAXPAVview_setup@@@Z 10013570 f   setup.obj
 0001:00012980       ?hk_draw_model_execute@@YIXPAVimodelrender@@PAXPAVimatrendercontext@@ABUdraw_model_state@@ABUmodel_render_info_t@@PAY123M@Z 10013980 f   setup.obj
 0001:00012a50       ?hk_frame_stage_notify@@YIXPAVchlclient@@PAXW4client_frame_stage_t@@@Z 10013a50 f   setup.obj
 0001:00012c00       ?hk_get_viewmodel_fov@@YIMPAViclientmodeshared@@PAX@Z 10013c00 f   setup.obj
 0001:00012ce0       ?hk_key_event@@YIHPAVchlclient@@PAXHHPBD@Z 10013ce0 f   setup.obj
 0001:00012e20       ?hk_override_view@@YIXPAViclientmodeshared@@PAXPAVview_setup@@@Z 10013e20 f   setup.obj
 0001:000130e0       ?hk_paint_traverse@@YIXPAVipanel@@PAXI_N2@Z 100140e0 f   setup.obj
 0001:00013470       ?hook_index@vmt_hook@@QAEXIPAX@Z 10014470 f i setup.obj
 0001:00013490       ?is_unused@glow_object_definition_t@@QBE_NXZ 10014490 f i setup.obj
 0001:00013580       ?ready_to_blast@s@@YA_NXZ  10014580 f   setup.obj
 0001:000135a0       ?reset@?$unique_ptr@Vvmt_hook@@U?$default_delete@Vvmt_hook@@@std@@@std@@QAEXPAVvmt_hook@@@Z 100145a0 f i setup.obj
 0001:00013610       ?safe@address@@SA_NV1@@Z   10014610 f i setup.obj
 0001:00013700       ?search_free_data_page@vmt_hook@@QAEPAIPBDI@Z 10014700 f i setup.obj
 0001:000137e0       ?set_font_glyph_set@isurface@@QAEXAAKPBDHHHHH@Z 100147e0 f i setup.obj
 0001:00013830       ?setup@vmt_hook@@QAE_NPAXPBD@Z 10014830 f i setup.obj
 0001:00013b30       ?setup_hooks@s@@YAXXZ      10014b30 f   setup.obj
 0001:00013d30       ?setup_interfaces@s@@YAXXZ 10014d30 f   setup.obj
 0001:00014040       ?size@?$vector@U?$pair@PAVc_baseentity@@Vvector@@@std@@V?$allocator@U?$pair@PAVc_baseentity@@Vvector@@@std@@@2@@std@@QBEIXZ 10015040 f i setup.obj
 0001:00014070       ?table_is_hooked@@YA?B_NPAXPBD@Z 10015070 f i setup.obj
 0001:000140d8       _K32GetModuleInformation@16 100150d8 f   kernel32:KERNEL32.dll
 0001:000140de       ?_Xlength_error@std@@YAXPBD@Z 100150de f   msvcprt:MSVCP140.dll
 0001:000140e4       ?_Xout_of_range@std@@YAXPBD@Z 100150e4 f   msvcprt:MSVCP140.dll
 0001:000140ea       ?uncaught_exception@std@@YA_NXZ 100150ea f   msvcprt:MSVCP140.dll
 0001:000140f0       ??1_Fac_node@std@@QAE@XZ   100150f0 f i msvcprt:locale0_implib.obj
 0001:00014121       ??1_Fac_tidy_reg_t@std@@QAE@XZ 10015121 f i msvcprt:locale0_implib.obj
 0001:00014148       ?_Facet_Register@std@@YAXPAV_Facet_base@1@@Z 10015148 f   msvcprt:locale0_implib.obj
 0001:00014174       ?_Getgloballocale@locale@std@@CAPAV_Locimp@12@XZ 10015174 f   msvcprt:MSVCP140.dll
 0001:0001417a       ?_Lock@?$basic_streambuf@DU?$char_traits@D@std@@@std@@UAEXXZ 1001517a f   msvcprt:MSVCP140.dll
 0001:00014180       ?_Unlock@?$basic_streambuf@DU?$char_traits@D@std@@@std@@UAEXXZ 10015180 f   msvcprt:MSVCP140.dll
 0001:00014186       ?imbue@?$basic_streambuf@DU?$char_traits@D@std@@@std@@MAEXABVlocale@2@@Z 10015186 f   msvcprt:MSVCP140.dll
 0001:0001418c       ?setbuf@?$basic_streambuf@DU?$char_traits@D@std@@@std@@MAEPAV12@PAD_J@Z 1001518c f   msvcprt:MSVCP140.dll
 0001:00014192       ?showmanyc@?$basic_streambuf@DU?$char_traits@D@std@@@std@@MAE_JXZ 10015192 f   msvcprt:MSVCP140.dll
 0001:00014198       ?sync@?$basic_streambuf@DU?$char_traits@D@std@@@std@@MAEHXZ 10015198 f   msvcprt:MSVCP140.dll
 0001:0001419e       ?uflow@?$basic_streambuf@DU?$char_traits@D@std@@@std@@MAEHXZ 1001519e f   msvcprt:MSVCP140.dll
 0001:000141a4       ?xsgetn@?$basic_streambuf@DU?$char_traits@D@std@@@std@@MAE_JPAD_J@Z 100151a4 f   msvcprt:MSVCP140.dll
 0001:000141aa       ?xsputn@?$basic_streambuf@DU?$char_traits@D@std@@@std@@MAE_JPBD_J@Z 100151aa f   msvcprt:MSVCP140.dll
 0001:000141b0       ??2@YAPAXI@Z               100151b0 f   MSVCRT:new_scalar.obj
 0001:000141e0       ??3@YAXPAXI@Z              100151e0 f   MSVCRT:delete_scalar_size.obj
 0001:000142b3       __Init_thread_abort        100152b3 f   MSVCRT:thread_safe_statics.obj
 0001:000142d7       __Init_thread_footer       100152d7 f   MSVCRT:thread_safe_statics.obj
 0001:00014321       __Init_thread_header       10015321 f   MSVCRT:thread_safe_statics.obj
 0001:00014373       __Init_thread_notify       10015373 f   MSVCRT:thread_safe_statics.obj
 0001:000143a9       __Init_thread_wait         100153a9 f   MSVCRT:thread_safe_statics.obj
 0001:000143f7       @__security_check_cookie@4 100153f7 f   MSVCRT:secchk.obj
 0001:00014410       __alloca_probe             10015410 f   MSVCRT:chkstk.obj
 0001:00014410       __chkstk                   10015410 f   MSVCRT:chkstk.obj
 0001:0001443d       ??_Etype_info@@UAEPAXI@Z   1001543d f i MSVCRT:std_type_info_static.obj
 0001:0001443d       ??_Gtype_info@@UAEPAXI@Z   1001543d f i MSVCRT:std_type_info_static.obj
 0001:000144a4       ___scrt_acquire_startup_lock 100154a4 f   MSVCRT:utility.obj
 0001:000144d6       ___scrt_dllmain_after_initialize_c 100154d6 f   MSVCRT:utility.obj
 0001:00014501       ___scrt_dllmain_before_initialize_c 10015501 f   MSVCRT:utility.obj
 0001:0001450f       ___scrt_dllmain_crt_thread_attach 1001550f f   MSVCRT:utility.obj
 0001:0001452e       ___scrt_dllmain_crt_thread_detach 1001552e f   MSVCRT:utility.obj
 0001:0001453b       ___scrt_dllmain_exception_filter 1001553b f   MSVCRT:utility.obj
 0001:0001456f       ___scrt_dllmain_uninitialize_c 1001556f f   MSVCRT:utility.obj
 0001:00014592       ___scrt_dllmain_uninitialize_critical 10015592 f   MSVCRT:utility.obj
 0001:0001459f       ___scrt_initialize_crt     1001559f f   MSVCRT:utility.obj
 0001:000145d8       ___scrt_initialize_onexit_tables 100155d8 f   MSVCRT:utility.obj
 0001:0001465f       ___scrt_is_nonwritable_in_current_image 1001565f f   MSVCRT:utility.obj
 0001:000146f3       ___scrt_release_startup_lock 100156f3 f   MSVCRT:utility.obj
 0001:00014710       ___scrt_uninitialize_crt   10015710 f   MSVCRT:utility.obj
 0001:00014738       __onexit                   10015738 f   MSVCRT:utility.obj
 0001:00014765       _atexit                    10015765 f   MSVCRT:utility.obj
 0001:0001477a       ??_V@YAXPAX@Z              1001577a f   MSVCRT:delete_array.obj
 0001:0001477f       ??_L@YGXPAXIIP6EX0@Z1@Z    1001577f f   MSVCRT:ehvecctr.obj
 0001:000147f3       ??_M@YGXPAXIIP6EX0@Z@Z     100157f3 f   MSVCRT:ehvecdtr.obj
 0001:00014878       ?__ArrayUnwind@@YGXPAXIIP6EX0@Z@Z 10015878 f   MSVCRT:ehvecdtr.obj
 0001:00014908       ??_U@YAPAXI@Z              10015908 f   MSVCRT:new_array.obj
 0001:00014c2c       __DllMainCRTStartup@12     10015c2c f   MSVCRT:dll_dllmain.obj
 0001:00014c4f       @_guard_check_icall_nop@4  10015c4f f i MSVCRT:guard_support.obj
 0001:00014c50       ??0bad_alloc@std@@QAE@XZ   10015c50 f i MSVCRT:throw_bad_alloc.obj
 0001:00014c68       ?__scrt_throw_std_bad_alloc@@YAXXZ 10015c68 f   MSVCRT:throw_bad_alloc.obj
 0001:00014c85       ?__scrt_throw_std_bad_array_new_length@@YAXXZ 10015c85 f   MSVCRT:throw_bad_alloc.obj
 0001:00014ca2       ??3@YAXPAX@Z               10015ca2 f   MSVCRT:delete_scalar.obj
 0001:00014ca7       ___scrt_fastfail           10015ca7 f   MSVCRT:utility_desktop.obj
 0001:00014dc1       __crt_debugger_hook        10015dc1 f   MSVCRT:utility_desktop.obj
 0001:00014dc9       ___raise_securityfailure   10015dc9 f   MSVCRT:gs_report.obj
 0001:00014df1       ___report_gsfailure        10015df1 f   MSVCRT:gs_report.obj
 0001:00014eec       ___isa_available_init      10015eec f   MSVCRT:cpu_disp.obj
 0001:000150ac       __get_startup_argv_mode    100160ac f   MSVCRT:argv_mode.obj
 0001:000150b0       ___scrt_is_ucrt_dll_in_use 100160b0 f   MSVCRT:ucrt_detection.obj
 0001:000150c0       __SEH_prolog4              100160c0 f   MSVCRT:sehprolg4.obj
 0001:00015106       __SEH_epilog4              10016106 f   MSVCRT:sehprolg4.obj
 0001:0001511b       __except_handler4          1001611b f   MSVCRT:chandler4gs.obj
 0001:00015197       ___security_init_cookie    10016197 f   MSVCRT:gs_support.obj
 0001:000151e2       ?__scrt_initialize_type_info@@YAXXZ 100161e2 f   MSVCRT:tncleanup.obj
 0001:000151ee       ?__scrt_uninitialize_type_info@@YAXXZ 100161ee f   MSVCRT:tncleanup.obj
 0001:000151fa       ___local_stdio_scanf_options 100161fa f i MSVCRT:default_local_stdio_options.obj
 0001:00015200       ___scrt_initialize_default_local_stdio_options 10016200 f   MSVCRT:default_local_stdio_options.obj
 0001:0001521d       ___scrt_get_dyn_tls_init_callback 1001621d f   MSVCRT:dyn_tls_init.obj
 0001:00015223       __RTC_Initialize           10016223 f   MSVCRT:initsect.obj
 0001:0001524f       __RTC_Terminate            1001624f f   MSVCRT:initsect.obj
 0001:0001527b       __purecall                 1001627b f   vcruntime:VCRUNTIME140.dll
 0001:00015281       ___std_exception_copy      10016281 f   vcruntime:VCRUNTIME140.dll
 0001:00015287       ___std_exception_destroy   10016287 f   vcruntime:VCRUNTIME140.dll
 0001:0001528d       __CxxThrowException@8      1001628d f   vcruntime:VCRUNTIME140.dll
 0001:00015293       ___CxxFrameHandler3        10016293 f   vcruntime:VCRUNTIME140.dll
 0001:00015299       _memcpy                    10016299 f   vcruntime:VCRUNTIME140.dll
 0001:0001529f       _memmove                   1001629f f   vcruntime:VCRUNTIME140.dll
 0001:000152a5       _strstr                    100162a5 f   vcruntime:VCRUNTIME140.dll
 0001:000152ab       _memchr                    100162ab f   vcruntime:VCRUNTIME140.dll
 0001:000152b1       _memcmp                    100162b1 f   vcruntime:VCRUNTIME140.dll
 0001:000152b7       _memset                    100162b7 f   vcruntime:VCRUNTIME140.dll
 0001:000152bd       ___current_exception       100162bd f   vcruntime:VCRUNTIME140.dll
 0001:000152c3       ___current_exception_context 100162c3 f   vcruntime:VCRUNTIME140.dll
 0001:000152c9       __except_handler4_common   100162c9 f   vcruntime:VCRUNTIME140.dll
 0001:000152cf       ___std_type_info_destroy_list 100162cf f   vcruntime:VCRUNTIME140.dll
 0001:000152d5       __CIatan2                  100162d5 f   ucrt:api-ms-win-crt-math-l1-1-0.dll
 0001:000152db       __libm_sse2_cos_precise    100162db f   ucrt:api-ms-win-crt-math-l1-1-0.dll
 0001:000152e1       __libm_sse2_sin_precise    100162e1 f   ucrt:api-ms-win-crt-math-l1-1-0.dll
 0001:000152e7       __libm_sse2_sqrt_precise   100162e7 f   ucrt:api-ms-win-crt-math-l1-1-0.dll
 0001:000152ed       __libm_sse2_tan_precise    100162ed f   ucrt:api-ms-win-crt-math-l1-1-0.dll
 0001:000152f3       __libm_sse2_acos_precise   100162f3 f   ucrt:api-ms-win-crt-math-l1-1-0.dll
 0001:000152f9       __callnewh                 100162f9 f   ucrt:api-ms-win-crt-heap-l1-1-0.dll
 0001:000152ff       _malloc                    100162ff f   ucrt:api-ms-win-crt-heap-l1-1-0.dll
 0001:00015305       __seh_filter_dll           10016305 f   ucrt:api-ms-win-crt-runtime-l1-1-0.dll
 0001:0001530b       __configure_narrow_argv    1001630b f   ucrt:api-ms-win-crt-runtime-l1-1-0.dll
 0001:00015311       __initialize_narrow_environment 10016311 f   ucrt:api-ms-win-crt-runtime-l1-1-0.dll
 0001:00015317       __initialize_onexit_table  10016317 f   ucrt:api-ms-win-crt-runtime-l1-1-0.dll
 0001:0001531d       __register_onexit_function 1001631d f   ucrt:api-ms-win-crt-runtime-l1-1-0.dll
 0001:00015323       __execute_onexit_table     10016323 f   ucrt:api-ms-win-crt-runtime-l1-1-0.dll
 0001:00015329       __crt_atexit               10016329 f   ucrt:api-ms-win-crt-runtime-l1-1-0.dll
 0001:0001532f       __cexit                    1001632f f   ucrt:api-ms-win-crt-runtime-l1-1-0.dll
 0001:00015335       _terminate                 10016335 f   ucrt:api-ms-win-crt-runtime-l1-1-0.dll
 0001:0001533b       __initterm                 1001633b f   ucrt:api-ms-win-crt-runtime-l1-1-0.dll
 0001:00015341       __initterm_e               10016341 f   ucrt:api-ms-win-crt-runtime-l1-1-0.dll
 0001:00015347       _free                      10016347 f   ucrt:api-ms-win-crt-heap-l1-1-0.dll
 0001:0001534d       _IsProcessorFeaturePresent@4 1001634d f   kernel32:KERNEL32.dll
 0001:00015353       ___acrt_uninitialize_critical 10016353 f   MSVCRT:ucrt_stubs.obj
 0001:00015353       ___scrt_stub_for_acrt_thread_detach 10016353 f   MSVCRT:ucrt_stubs.obj
 0001:00015353       ___scrt_stub_for_acrt_uninitialize 10016353 f   MSVCRT:ucrt_stubs.obj
 0001:00015353       ___acrt_thread_attach      10016353 f   MSVCRT:ucrt_stubs.obj
 0001:00015353       ___vcrt_uninitialize       10016353 f   MSVCRT:ucrt_stubs.obj
 0001:00015353       ___acrt_uninitialize       10016353 f   MSVCRT:ucrt_stubs.obj
 0001:00015353       ___scrt_stub_for_acrt_uninitialize_critical 10016353 f   MSVCRT:ucrt_stubs.obj
 0001:00015353       ___scrt_stub_for_acrt_initialize 10016353 f   MSVCRT:ucrt_stubs.obj
 0001:00015353       ___scrt_stub_for_acrt_thread_attach 10016353 f   MSVCRT:ucrt_stubs.obj
 0001:00015353       ___acrt_thread_detach      10016353 f   MSVCRT:ucrt_stubs.obj
 0001:00015353       ___acrt_initialize         10016353 f   MSVCRT:ucrt_stubs.obj
 0001:00015353       ___vcrt_initialize         10016353 f   MSVCRT:ucrt_stubs.obj
 0001:00015353       ___vcrt_uninitialize_critical 10016353 f   MSVCRT:ucrt_stubs.obj
 0001:00015353       ___vcrt_thread_attach      10016353 f   MSVCRT:ucrt_stubs.obj
 0001:00015353       ___vcrt_thread_detach      10016353 f   MSVCRT:ucrt_stubs.obj
 0001:00015356       __is_c_termination_complete 10016356 f   MSVCRT:ucrt_stubs.obj
 0001:00015356       ___scrt_stub_for_is_c_termination_complete 10016356 f   MSVCRT:ucrt_stubs.obj
 0001:00015359       __filter_x86_sse2_floating_point_exception_default 10016359 f   MSVCRT:x86_exception_filter.obj
 0001:00015359       __filter_x86_sse2_floating_point_exception 10016359 f   MSVCRT:x86_exception_filter.obj
 0002:00000000       __imp__GetCurrentProcess@0 10017000     kernel32:KERNEL32.dll
 0002:00000004       __imp__GetModuleHandleA@4  10017004     kernel32:KERNEL32.dll
 0002:00000008       __imp__GetProcAddress@8    10017008     kernel32:KERNEL32.dll
 0002:0000000c       __imp__K32GetModuleInformation@16 1001700c     kernel32:KERNEL32.dll
 0002:00000010       __imp__MultiByteToWideChar@24 10017010     kernel32:KERNEL32.dll
 0002:00000014       __imp__VirtualProtect@16   10017014     kernel32:KERNEL32.dll
 0002:00000018       __imp__CloseHandle@4       10017018     kernel32:KERNEL32.dll
 0002:0000001c       __imp__CreateThread@24     1001701c     kernel32:KERNEL32.dll
 0002:00000020       __imp__DisableThreadLibraryCalls@4 10017020     kernel32:KERNEL32.dll
 0002:00000024       __imp__FreeLibraryAndExitThread@8 10017024     kernel32:KERNEL32.dll
 0002:00000028       __imp__Beep@8              10017028     kernel32:KERNEL32.dll
 0002:0000002c       __imp__VirtualQuery@12     1001702c     kernel32:KERNEL32.dll
 0002:00000030       __imp__GetSystemTimeAsFileTime@4 10017030     kernel32:KERNEL32.dll
 0002:00000034       __imp__GetCurrentThreadId@0 10017034     kernel32:KERNEL32.dll
 0002:00000038       __imp__GetCurrentProcessId@0 10017038     kernel32:KERNEL32.dll
 0002:0000003c       __imp__QueryPerformanceCounter@4 1001703c     kernel32:KERNEL32.dll
 0002:00000040       __imp__TerminateProcess@8  10017040     kernel32:KERNEL32.dll
 0002:00000044       __imp__IsProcessorFeaturePresent@4 10017044     kernel32:KERNEL32.dll
 0002:00000048       __imp__SetUnhandledExceptionFilter@4 10017048     kernel32:KERNEL32.dll
 0002:0000004c       __imp__UnhandledExceptionFilter@4 1001704c     kernel32:KERNEL32.dll
 0002:00000050       __imp__IsDebuggerPresent@0 10017050     kernel32:KERNEL32.dll
 0002:00000054       __imp__GetModuleHandleW@4  10017054     kernel32:KERNEL32.dll
 0002:00000058       __imp__CreateEventW@16     10017058     kernel32:KERNEL32.dll
 0002:0000005c       __imp__WaitForSingleObjectEx@12 1001705c     kernel32:KERNEL32.dll
 0002:00000060       __imp__ResetEvent@4        10017060     kernel32:KERNEL32.dll
 0002:00000064       __imp__SetEvent@4          10017064     kernel32:KERNEL32.dll
 0002:00000068       __imp__DeleteCriticalSection@4 10017068     kernel32:KERNEL32.dll
 0002:0000006c       __imp__InitializeCriticalSectionAndSpinCount@8 1001706c     kernel32:KERNEL32.dll
 0002:00000070       __imp__LeaveCriticalSection@4 10017070     kernel32:KERNEL32.dll
 0002:00000074       __imp__EnterCriticalSection@4 10017074     kernel32:KERNEL32.dll
 0002:00000078       __imp__InitializeSListHead@4 10017078     kernel32:KERNEL32.dll
 0002:0000007c       \177KERNEL32_NULL_THUNK_DATA 1001707c     kernel32:KERNEL32.dll
 0002:00000080       __imp_??1?$basic_streambuf@DU?$char_traits@D@std@@@std@@UAE@XZ 10017080     msvcprt:MSVCP140.dll
 0002:00000084       __imp_?sputc@?$basic_streambuf@DU?$char_traits@D@std@@@std@@QAEHD@Z 10017084     msvcprt:MSVCP140.dll
 0002:00000088       __imp_?sputn@?$basic_streambuf@DU?$char_traits@D@std@@@std@@QAE_JPBD_J@Z 10017088     msvcprt:MSVCP140.dll
 0002:0000008c       __imp_?eback@?$basic_streambuf@DU?$char_traits@D@std@@@std@@IBEPADXZ 1001708c     msvcprt:MSVCP140.dll
 0002:00000090       __imp_?gptr@?$basic_streambuf@DU?$char_traits@D@std@@@std@@IBEPADXZ 10017090     msvcprt:MSVCP140.dll
 0002:00000094       __imp_?pbase@?$basic_streambuf@DU?$char_traits@D@std@@@std@@IBEPADXZ 10017094     msvcprt:MSVCP140.dll
 0002:00000098       __imp_?pptr@?$basic_streambuf@DU?$char_traits@D@std@@@std@@IBEPADXZ 10017098     msvcprt:MSVCP140.dll
 0002:0000009c       __imp_?egptr@?$basic_streambuf@DU?$char_traits@D@std@@@std@@IBEPADXZ 1001709c     msvcprt:MSVCP140.dll
 0002:000000a0       __imp_?gbump@?$basic_streambuf@DU?$char_traits@D@std@@@std@@IAEXH@Z 100170a0     msvcprt:MSVCP140.dll
 0002:000000a4       __imp_?setg@?$basic_streambuf@DU?$char_traits@D@std@@@std@@IAEXPAD00@Z 100170a4     msvcprt:MSVCP140.dll
 0002:000000a8       __imp_?epptr@?$basic_streambuf@DU?$char_traits@D@std@@@std@@IBEPADXZ 100170a8     msvcprt:MSVCP140.dll
 0002:000000ac       __imp_?setp@?$basic_streambuf@DU?$char_traits@D@std@@@std@@IAEXPAD0@Z 100170ac     msvcprt:MSVCP140.dll
 0002:000000b0       __imp_?setp@?$basic_streambuf@DU?$char_traits@D@std@@@std@@IAEXPAD00@Z 100170b0     msvcprt:MSVCP140.dll
 0002:000000b4       __imp_?_Pninc@?$basic_streambuf@DU?$char_traits@D@std@@@std@@IAEPADXZ 100170b4     msvcprt:MSVCP140.dll
 0002:000000b8       __imp_??1?$basic_ios@DU?$char_traits@D@std@@@std@@UAE@XZ 100170b8     msvcprt:MSVCP140.dll
 0002:000000bc       __imp_?setstate@?$basic_ios@DU?$char_traits@D@std@@@std@@QAEXH_N@Z 100170bc     msvcprt:MSVCP140.dll
 0002:000000c0       __imp_?tie@?$basic_ios@DU?$char_traits@D@std@@@std@@QBEPAV?$basic_ostream@DU?$char_traits@D@std@@@2@XZ 100170c0     msvcprt:MSVCP140.dll
 0002:000000c4       __imp_?rdbuf@?$basic_ios@DU?$char_traits@D@std@@@std@@QBEPAV?$basic_streambuf@DU?$char_traits@D@std@@@2@XZ 100170c4     msvcprt:MSVCP140.dll
 0002:000000c8       __imp_?fill@?$basic_ios@DU?$char_traits@D@std@@@std@@QBEDXZ 100170c8     msvcprt:MSVCP140.dll
 0002:000000cc       __imp_??0?$basic_ios@DU?$char_traits@D@std@@@std@@IAE@XZ 100170cc     msvcprt:MSVCP140.dll
 0002:000000d0       __imp_?_Osfx@?$basic_ostream@DU?$char_traits@D@std@@@std@@QAEXXZ 100170d0     msvcprt:MSVCP140.dll
 0002:000000d4       __imp_?flush@?$basic_ostream@DU?$char_traits@D@std@@@std@@QAEAAV12@XZ 100170d4     msvcprt:MSVCP140.dll
 0002:000000d8       __imp_??0?$basic_iostream@DU?$char_traits@D@std@@@std@@QAE@PAV?$basic_streambuf@DU?$char_traits@D@std@@@1@@Z 100170d8     msvcprt:MSVCP140.dll
 0002:000000dc       __imp_??1?$basic_iostream@DU?$char_traits@D@std@@@std@@UAE@XZ 100170dc     msvcprt:MSVCP140.dll
 0002:000000e0       __imp_?put@?$time_put@DV?$ostreambuf_iterator@DU?$char_traits@D@std@@@std@@@std@@QBE?AV?$ostreambuf_iterator@DU?$char_traits@D@std@@@2@V32@AAVios_base@2@DPBUtm@@PBD3@Z 100170e0     msvcprt:MSVCP140.dll
 0002:000000e4       __imp_?_Getcat@?$time_put@DV?$ostreambuf_iterator@DU?$char_traits@D@std@@@std@@@std@@SAIPAPBVfacet@locale@2@PBV42@@Z 100170e4     msvcprt:MSVCP140.dll
 0002:000000e8       __imp_?_Lock@?$basic_streambuf@DU?$char_traits@D@std@@@std@@UAEXXZ 100170e8     msvcprt:MSVCP140.dll
 0002:000000ec       __imp_?_Unlock@?$basic_streambuf@DU?$char_traits@D@std@@@std@@UAEXXZ 100170ec     msvcprt:MSVCP140.dll
 0002:000000f0       __imp_?imbue@?$basic_streambuf@DU?$char_traits@D@std@@@std@@MAEXABVlocale@2@@Z 100170f0     msvcprt:MSVCP140.dll
 0002:000000f4       __imp_?setbuf@?$basic_streambuf@DU?$char_traits@D@std@@@std@@MAEPAV12@PAD_J@Z 100170f4     msvcprt:MSVCP140.dll
 0002:000000f8       __imp_?showmanyc@?$basic_streambuf@DU?$char_traits@D@std@@@std@@MAE_JXZ 100170f8     msvcprt:MSVCP140.dll
 0002:000000fc       __imp_?sync@?$basic_streambuf@DU?$char_traits@D@std@@@std@@MAEHXZ 100170fc     msvcprt:MSVCP140.dll
 0002:00000100       __imp_?uflow@?$basic_streambuf@DU?$char_traits@D@std@@@std@@MAEHXZ 10017100     msvcprt:MSVCP140.dll
 0002:00000104       __imp_?xsgetn@?$basic_streambuf@DU?$char_traits@D@std@@@std@@MAE_JPAD_J@Z 10017104     msvcprt:MSVCP140.dll
 0002:00000108       __imp_?xsputn@?$basic_streambuf@DU?$char_traits@D@std@@@std@@MAE_JPBD_J@Z 10017108     msvcprt:MSVCP140.dll
 0002:0000010c       __imp_?id@?$time_put@DV?$ostreambuf_iterator@DU?$char_traits@D@std@@@std@@@std@@2V0locale@2@A 1001710c     msvcprt:MSVCP140.dll
 0002:00000110       __imp_?width@ios_base@std@@QBE_JXZ 10017110     msvcprt:MSVCP140.dll
 0002:00000114       __imp_?flags@ios_base@std@@QBEHXZ 10017114     msvcprt:MSVCP140.dll
 0002:00000118       __imp_?getloc@ios_base@std@@QBE?AVlocale@2@XZ 10017118     msvcprt:MSVCP140.dll
 0002:0000011c       __imp_?good@ios_base@std@@QBE_NXZ 1001711c     msvcprt:MSVCP140.dll
 0002:00000120       __imp_?_Getgloballocale@locale@std@@CAPAV_Locimp@12@XZ 10017120     msvcprt:MSVCP140.dll
 0002:00000124       __imp_??Bid@locale@std@@QAEIXZ 10017124     msvcprt:MSVCP140.dll
 0002:00000128       __imp_?uncaught_exception@std@@YA_NXZ 10017128     msvcprt:MSVCP140.dll
 0002:0000012c       __imp_??1_Lockit@std@@QAE@XZ 1001712c     msvcprt:MSVCP140.dll
 0002:00000130       __imp_??0_Lockit@std@@QAE@H@Z 10017130     msvcprt:MSVCP140.dll
 0002:00000134       __imp_?_Xout_of_range@std@@YAXPBD@Z 10017134     msvcprt:MSVCP140.dll
 0002:00000138       __imp_??0?$basic_streambuf@DU?$char_traits@D@std@@@std@@IAE@XZ 10017138     msvcprt:MSVCP140.dll
 0002:0000013c       __imp_?_Xlength_error@std@@YAXPBD@Z 1001713c     msvcprt:MSVCP140.dll
 0002:00000140       __imp_?width@ios_base@std@@QAE_J_J@Z 10017140     msvcprt:MSVCP140.dll
 0002:00000144       \177MSVCP140_NULL_THUNK_DATA 10017144     msvcprt:MSVCP140.dll
 0002:00000148       __imp___except_handler4_common 10017148     vcruntime:VCRUNTIME140.dll
 0002:0000014c       __imp____current_exception_context 1001714c     vcruntime:VCRUNTIME140.dll
 0002:00000150       __imp____current_exception 10017150     vcruntime:VCRUNTIME140.dll
 0002:00000154       __imp__memset              10017154     vcruntime:VCRUNTIME140.dll
 0002:00000158       __imp__memcmp              10017158     vcruntime:VCRUNTIME140.dll
 0002:0000015c       __imp__memchr              1001715c     vcruntime:VCRUNTIME140.dll
 0002:00000160       __imp____std_type_info_destroy_list 10017160     vcruntime:VCRUNTIME140.dll
 0002:00000164       __imp__memmove             10017164     vcruntime:VCRUNTIME140.dll
 0002:00000168       __imp__memcpy              10017168     vcruntime:VCRUNTIME140.dll
 0002:0000016c       __imp____CxxFrameHandler3  1001716c     vcruntime:VCRUNTIME140.dll
 0002:00000170       __imp___CxxThrowException@8 10017170     vcruntime:VCRUNTIME140.dll
 0002:00000174       __imp____std_exception_destroy 10017174     vcruntime:VCRUNTIME140.dll
 0002:00000178       __imp___purecall           10017178     vcruntime:VCRUNTIME140.dll
 0002:0000017c       __imp__strstr              1001717c     vcruntime:VCRUNTIME140.dll
 0002:00000180       __imp____std_exception_copy 10017180     vcruntime:VCRUNTIME140.dll
 0002:00000184       \177VCRUNTIME140_NULL_THUNK_DATA 10017184     vcruntime:VCRUNTIME140.dll
 0002:00000188       __imp__mbstowcs_s          10017188     ucrt:api-ms-win-crt-convert-l1-1-0.dll
 0002:0000018c       \177api-ms-win-crt-convert-l1-1-0_NULL_THUNK_DATA 1001718c     ucrt:api-ms-win-crt-convert-l1-1-0.dll
 0002:00000190       __imp__malloc              10017190     ucrt:api-ms-win-crt-heap-l1-1-0.dll
 0002:00000194       __imp___callnewh           10017194     ucrt:api-ms-win-crt-heap-l1-1-0.dll
 0002:00000198       __imp__free                10017198     ucrt:api-ms-win-crt-heap-l1-1-0.dll
 0002:0000019c       \177api-ms-win-crt-heap-l1-1-0_NULL_THUNK_DATA 1001719c     ucrt:api-ms-win-crt-heap-l1-1-0.dll
 0002:000001a0       __imp___libm_sse2_acos_precise 100171a0     ucrt:api-ms-win-crt-math-l1-1-0.dll
 0002:000001a4       __imp___libm_sse2_sin_precise 100171a4     ucrt:api-ms-win-crt-math-l1-1-0.dll
 0002:000001a8       __imp___libm_sse2_sqrt_precise 100171a8     ucrt:api-ms-win-crt-math-l1-1-0.dll
 0002:000001ac       __imp__roundf              100171ac     ucrt:api-ms-win-crt-math-l1-1-0.dll
 0002:000001b0       __imp___libm_sse2_cos_precise 100171b0     ucrt:api-ms-win-crt-math-l1-1-0.dll
 0002:000001b4       __imp___CIatan2            100171b4     ucrt:api-ms-win-crt-math-l1-1-0.dll
 0002:000001b8       __imp___libm_sse2_tan_precise 100171b8     ucrt:api-ms-win-crt-math-l1-1-0.dll
 0002:000001bc       \177api-ms-win-crt-math-l1-1-0_NULL_THUNK_DATA 100171bc     ucrt:api-ms-win-crt-math-l1-1-0.dll
 0002:000001c0       __imp___initialize_narrow_environment 100171c0     ucrt:api-ms-win-crt-runtime-l1-1-0.dll
 0002:000001c4       __imp___configure_narrow_argv 100171c4     ucrt:api-ms-win-crt-runtime-l1-1-0.dll
 0002:000001c8       __imp___seh_filter_dll     100171c8     ucrt:api-ms-win-crt-runtime-l1-1-0.dll
 0002:000001cc       __imp___execute_onexit_table 100171cc     ucrt:api-ms-win-crt-runtime-l1-1-0.dll
 0002:000001d0       __imp___register_onexit_function 100171d0     ucrt:api-ms-win-crt-runtime-l1-1-0.dll
 0002:000001d4       __imp___cexit              100171d4     ucrt:api-ms-win-crt-runtime-l1-1-0.dll
 0002:000001d8       __imp__terminate           100171d8     ucrt:api-ms-win-crt-runtime-l1-1-0.dll
 0002:000001dc       __imp___initterm_e         100171dc     ucrt:api-ms-win-crt-runtime-l1-1-0.dll
 0002:000001e0       __imp___crt_atexit         100171e0     ucrt:api-ms-win-crt-runtime-l1-1-0.dll
 0002:000001e4       __imp___initterm           100171e4     ucrt:api-ms-win-crt-runtime-l1-1-0.dll
 0002:000001e8       __imp___invalid_parameter_noinfo_noreturn 100171e8     ucrt:api-ms-win-crt-runtime-l1-1-0.dll
 0002:000001ec       __imp___initialize_onexit_table 100171ec     ucrt:api-ms-win-crt-runtime-l1-1-0.dll
 0002:000001f0       \177api-ms-win-crt-runtime-l1-1-0_NULL_THUNK_DATA 100171f0     ucrt:api-ms-win-crt-runtime-l1-1-0.dll
 0002:000001f4       __imp____stdio_common_vsprintf 100171f4     ucrt:api-ms-win-crt-stdio-l1-1-0.dll
 0002:000001f8       \177api-ms-win-crt-stdio-l1-1-0_NULL_THUNK_DATA 100171f8     ucrt:api-ms-win-crt-stdio-l1-1-0.dll
 0002:000001fc       __imp__strncmp             100171fc     ucrt:api-ms-win-crt-string-l1-1-0.dll
 0002:00000200       \177api-ms-win-crt-string-l1-1-0_NULL_THUNK_DATA 10017200     ucrt:api-ms-win-crt-string-l1-1-0.dll
 0002:00000204       __imp___time64             10017204     ucrt:api-ms-win-crt-time-l1-1-0.dll
 0002:00000208       __imp___localtime64        10017208     ucrt:api-ms-win-crt-time-l1-1-0.dll
 0002:0000020c       \177api-ms-win-crt-time-l1-1-0_NULL_THUNK_DATA 1001720c     ucrt:api-ms-win-crt-time-l1-1-0.dll
 0002:00000210       ___guard_check_icall_fptr  10017210     MSVCRT:guard_support.obj
 0002:00000214       ___xc_a                    10017214     MSVCRT:initializers.obj
 0002:00000240       ___xc_z                    10017240     MSVCRT:initializers.obj
 0002:00000244       ___xi_a                    10017244     MSVCRT:initializers.obj
 0002:0000024c       ___xi_z                    1001724c     MSVCRT:initializers.obj
 0002:00000250       ___xl_a                    10017250     MSVCRT:tlssup.obj
 0002:00000254       ___xl_z                    10017254     MSVCRT:tlssup.obj
 0002:00000258       ___xp_a                    10017258     MSVCRT:initializers.obj
 0002:0000025c       ___xp_z                    1001725c     MSVCRT:initializers.obj
 0002:00000260       ___xt_a                    10017260     MSVCRT:initializers.obj
 0002:00000264       ___xt_z                    10017264     MSVCRT:initializers.obj
 0002:00000274       ??_7exception@std@@6B@     10017274     aimbot.obj
 0002:0000027c       ??_C@_0BC@EOODALEL@Unknown?5exception@ 1001727c     aimbot.obj
 0002:00000294       ??_7bad_alloc@std@@6B@     10017294     aimbot.obj
 0002:000002a0       ??_7bad_array_new_length@std@@6B@ 100172a0     aimbot.obj
 0002:000002a8       ??_C@_0BF@KINCDENJ@bad?5array?5new?5length@ 100172a8     aimbot.obj
 0002:000002c0       ??_C@_0M@MPLEGCP@RandomFloat@ 100172c0     aimbot.obj
 0002:000002cc       ??_C@_0M@EINGCJHB@vstdlib?4dll@ 100172cc     aimbot.obj
 0002:000002d8       ??_C@_0CC@CICDMEMM@C6?587?5?$DP?5?$DP?5?$DP?5?$DP?5?$DP?58B?506?58B?5CE?5FF?5@ 100172d8     aimbot.obj
 0002:000002fc       ??_C@_0BE@FJNGABL@client_panorama?4dll@ 100172fc     aimbot.obj
 0002:00000314       ??_7itracefilter@@6B@      10017314     aimbot.obj
 0002:00000320       ??_7trace_filter@@6B@      10017320     aimbot.obj
 0002:00000328       ??_C@_0BD@OLBABOEK@vector?$DMT?$DO?5too?5long@ 10017328     aimbot.obj
 0002:0000033c       __real@00000000            1001733c     aimbot.obj
 0002:00000340       __real@34000000            10017340     aimbot.obj
 0002:00000344       __real@3a83126f            10017344     aimbot.obj
 0002:00000348       __real@3c8efa35            10017348     aimbot.obj
 0002:0000034c       __real@3f000000            1001734c     aimbot.obj
 0002:00000350       __real@3f7d70a4            10017350     aimbot.obj
 0002:00000354       __real@3f800000            10017354     aimbot.obj
 0002:00000358       __real@40000000            10017358     aimbot.obj
 0002:0000035c       __real@40490fdb            1001735c     aimbot.obj
 0002:00000360       __real@40c90fdb            10017360     aimbot.obj
 0002:00000364       __real@41500000            10017364     aimbot.obj
 0002:00000368       __real@42652ee0            10017368     aimbot.obj
 0002:0000036c       __real@42b40000            1001736c     aimbot.obj
 0002:00000370       __real@42c80000            10017370     aimbot.obj
 0002:00000374       __real@43160000            10017374     aimbot.obj
 0002:00000378       __real@43340000            10017378     aimbot.obj
 0002:0000037c       __real@43800000            1001737c     aimbot.obj
 0002:00000380       __real@43870000            10017380     aimbot.obj
 0002:00000384       __real@43b40000            10017384     aimbot.obj
 0002:00000388       __real@7f800000            10017388     aimbot.obj
 0002:0000038c       __real@bf800000            1001738c     aimbot.obj
 0002:00000390       __real@c3340000            10017390     aimbot.obj
 0002:000003a0       __xmm@80000000800000008000000080000000 100173a0     aimbot.obj
 0002:000003b0       __real@3dcccccd            100173b0     hvh.obj
 0002:000003b4       __real@3e6147ae            100173b4     hvh.obj
 0002:000003b8       __real@3f8ccccd            100173b8     hvh.obj
 0002:000003c0       __real@3fb999999999999a    100173c0     hvh.obj
 0002:000003c8       __real@3fc9999984200ab7    100173c8     hvh.obj
 0002:000003d0       __real@41f00000            100173d0     hvh.obj
 0002:000003d4       __real@42b20000            100173d4     hvh.obj
 0002:000003d8       __real@bfd333333deffaa4    100173d8     hvh.obj
 0002:000003e0       __real@c2b20000            100173e0     hvh.obj
 0002:000003e4       __real@c2b40000            100173e4     hvh.obj
 0002:000003e8       __real@c3b40000            100173e8     hvh.obj
 0002:00000494       ??_C@_0BI@CFPLBAOH@invalid?5string?5position@ 10017494     misc.obj
 0002:000004ac       ??_C@_0BA@JFNIOLAK@string?5too?5long@ 100174ac     misc.obj
 0002:000004bc       __real@43e10000            100174bc     misc.obj
 0002:000004c0       __real@45b6d000            100174c0     misc.obj
 0002:000004c4       __real@c3e10000            100174c4     misc.obj
 0002:000004c8       __real@3feccccccccccccd    100174c8     resolver.obj
 0002:000004d0       __real@41000000            100174d0     resolver.obj
 0002:000008b4       ??_7bad_cast@std@@6B@      100178b4     visuals.obj
 0002:000008bc       ??_C@_08EPJLHIJG@bad?5cast@ 100178bc     visuals.obj
 0002:000008c8       ??_C@_02GNLKGMFL@HK@       100178c8     visuals.obj
 0002:000008cc       ??_C@_01KNKLHLMO@K@        100178cc     visuals.obj
 0002:000008d0       ??_C@_01CLKCMJKC@?5@       100178d0     visuals.obj
 0002:000008d8       ??_7?$basic_stringbuf@DU?$char_traits@D@std@@V?$allocator@D@2@@std@@6B@ 100178d8     visuals.obj
 0002:00000918       ??_7?$basic_stringstream@DU?$char_traits@D@std@@V?$allocator@D@2@@std@@6B@ 10017918     visuals.obj
 0002:0000091c       ??_8?$basic_stringstream@DU?$char_traits@D@std@@V?$allocator@D@2@@std@@7B?$basic_istream@DU?$char_traits@D@std@@@1@@ 1001791c     visuals.obj
 0002:00000924       ??_8?$basic_stringstream@DU?$char_traits@D@std@@V?$allocator@D@2@@std@@7B?$basic_ostream@DU?$char_traits@D@std@@@1@@ 10017924     visuals.obj
 0002:0000092c       __real@3c23d70a            1001792c     visuals.obj
 0002:00000930       __real@3f6d79fb            10017930     visuals.obj
 0002:00000934       __real@40800000            10017934     visuals.obj
 0002:00000938       __real@40c00000            10017938     visuals.obj
 0002:0000093c       __real@40e00000            1001793c     visuals.obj
 0002:00000940       __real@41880000            10017940     visuals.obj
 0002:00000944       __real@420c0000            10017944     visuals.obj
 0002:00000948       __real@42480000            10017948     visuals.obj
 0002:0000094c       __real@42fe0000            1001794c     visuals.obj
 0002:00000950       __real@43000000            10017950     visuals.obj
 0002:00000954       __real@437f0000            10017954     visuals.obj
 0002:00000958       __real@447a0000            10017958     visuals.obj
 0002:00000960       __xmm@41f00000000000000000000000000000 10017960     visuals.obj
 0002:000009e0       ??_7runtime_error@std@@6B@ 100179e0     hooks.obj
 0002:000009e8       ??_C@_0BJ@GHBBKENI@failed?5to?5protect?5region@ 100179e8     hooks.obj
 0002:00000a10       __xmm@7fffffffffffffff7fffffffffffffff 10017a10     util.obj
 0002:00000a24       ??_7igameeventlistener@@6B@ 10017a24     main.obj
 0002:00000a34       ??_7player_hurt_listener@events@@6B@ 10017a34     main.obj
 0002:00001064       __real@40a00000            10018064     menu.obj
 0002:00001068       __real@40f00000            10018068     menu.obj
 0002:0000106c       __real@42700000            1001806c     menu.obj
 0002:00001070       __real@42a00000            10018070     menu.obj
 0002:00001074       __real@c0f00000            10018074     menu.obj
 0002:00001798       __real@3ee66663            10018798     setup.obj
 0002:0000179c       __real@3f59999a            1001879c     setup.obj
 0002:000017a0       ??_C@_1EC@JIJBPKFM@?$AAa?$AAp?$AAi?$AA?9?$AAm?$AAs?$AA?9?$AAw?$AAi?$AAn?$AA?9?$AAc?$AAo?$AAr?$AAe@ 100187a0     MSVCRT:thread_safe_statics.obj
 0002:000017e4       ??_C@_1BK@MGMFAEKH@?$AAk?$AAe?$AAr?$AAn?$AAe?$AAl?$AA3?$AA2?$AA?4?$AAd?$AAl?$AAl@ 100187e4     MSVCRT:thread_safe_statics.obj
 0002:00001800       ??_C@_0BJ@JEBJOJFJ@SleepConditionVariableCS@ 10018800     MSVCRT:thread_safe_statics.obj
 0002:0000181c       ??_C@_0BJ@PGPPEPCC@WakeAllConditionVariable@ 1001881c     MSVCRT:thread_safe_statics.obj
 0002:0000183c       ??_7type_info@@6B@         1001883c     MSVCRT:std_type_info_static.obj
 0002:00001840       __pDefaultRawDllMain       10018840     MSVCRT:dll_dllmain.obj
 0002:00001840       __pRawDllMain              10018840     MSVCRT:dll_dllmain.obj
 0002:00001844       ??_C@_0P@GHFPNOJB@bad?5allocation@ 10018844     MSVCRT:throw_bad_alloc.obj
 0002:000018d0       __load_config_used         100188d0     MSVCRT:loadcfg.obj
 0002:00001974       __tls_used                 10018974     MSVCRT:tlssup.obj
 0002:0000198c       ??_R4exception@std@@6B@    1001898c     aimbot.obj
 0002:000019a0       ??_R3exception@std@@8      100189a0     aimbot.obj
 0002:000019b0       ??_R2exception@std@@8      100189b0     aimbot.obj
 0002:000019b8       ??_R1A@?0A@EA@exception@std@@8 100189b8     aimbot.obj
 0002:000019d4       ??_R4bad_alloc@std@@6B@    100189d4     aimbot.obj
 0002:000019e8       ??_R3bad_alloc@std@@8      100189e8     aimbot.obj
 0002:000019f8       ??_R2bad_alloc@std@@8      100189f8     aimbot.obj
 0002:00001a04       ??_R1A@?0A@EA@bad_alloc@std@@8 10018a04     aimbot.obj
 0002:00001a20       ??_R4bad_array_new_length@std@@6B@ 10018a20     aimbot.obj
 0002:00001a34       ??_R3bad_array_new_length@std@@8 10018a34     aimbot.obj
 0002:00001a44       ??_R2bad_array_new_length@std@@8 10018a44     aimbot.obj
 0002:00001a54       ??_R1A@?0A@EA@bad_array_new_length@std@@8 10018a54     aimbot.obj
 0002:00001a70       ??_R4itracefilter@@6B@     10018a70     aimbot.obj
 0002:00001a84       ??_R3itracefilter@@8       10018a84     aimbot.obj
 0002:00001a94       ??_R2itracefilter@@8       10018a94     aimbot.obj
 0002:00001a9c       ??_R1A@?0A@EA@itracefilter@@8 10018a9c     aimbot.obj
 0002:00001ab8       ??_R4trace_filter@@6B@     10018ab8     aimbot.obj
 0002:00001acc       ??_R3trace_filter@@8       10018acc     aimbot.obj
 0002:00001adc       ??_R2trace_filter@@8       10018adc     aimbot.obj
 0002:00001ae8       ??_R1A@?0A@EA@trace_filter@@8 10018ae8     aimbot.obj
 0002:00001b04       ??_R4?$basic_stringbuf@DU?$char_traits@D@std@@V?$allocator@D@2@@std@@6B@ 10018b04     visuals.obj
 0002:00001b18       ??_R3?$basic_stringbuf@DU?$char_traits@D@std@@V?$allocator@D@2@@std@@8 10018b18     visuals.obj
 0002:00001b28       ??_R2?$basic_stringbuf@DU?$char_traits@D@std@@V?$allocator@D@2@@std@@8 10018b28     visuals.obj
 0002:00001b34       ??_R1A@?0A@EA@?$basic_stringbuf@DU?$char_traits@D@std@@V?$allocator@D@2@@std@@8 10018b34     visuals.obj
 0002:00001b50       ??_R1A@?0A@EA@?$basic_streambuf@DU?$char_traits@D@std@@@std@@8 10018b50     visuals.obj
 0002:00001b6c       ??_R3?$basic_streambuf@DU?$char_traits@D@std@@@std@@8 10018b6c     visuals.obj
 0002:00001b7c       ??_R2?$basic_streambuf@DU?$char_traits@D@std@@@std@@8 10018b7c     visuals.obj
 0002:00001b84       ??_R4?$basic_stringstream@DU?$char_traits@D@std@@V?$allocator@D@2@@std@@6B@ 10018b84     visuals.obj
 0002:00001b98       ??_R3?$basic_stringstream@DU?$char_traits@D@std@@V?$allocator@D@2@@std@@8 10018b98     visuals.obj
 0002:00001ba8       ??_R2?$basic_stringstream@DU?$char_traits@D@std@@V?$allocator@D@2@@std@@8 10018ba8     visuals.obj
 0002:00001bd4       ??_R1A@?0A@EA@?$basic_stringstream@DU?$char_traits@D@std@@V?$allocator@D@2@@std@@8 10018bd4     visuals.obj
 0002:00001bf0       ??_R1A@?0A@EA@?$basic_iostream@DU?$char_traits@D@std@@@std@@8 10018bf0     visuals.obj
 0002:00001c0c       ??_R3?$basic_iostream@DU?$char_traits@D@std@@@std@@8 10018c0c     visuals.obj
 0002:00001c1c       ??_R2?$basic_iostream@DU?$char_traits@D@std@@@std@@8 10018c1c     visuals.obj
 0002:00001c44       ??_R1A@?0A@EA@?$basic_istream@DU?$char_traits@D@std@@@std@@8 10018c44     visuals.obj
 0002:00001c60       ??_R3?$basic_istream@DU?$char_traits@D@std@@@std@@8 10018c60     visuals.obj
 0002:00001c70       ??_R2?$basic_istream@DU?$char_traits@D@std@@@std@@8 10018c70     visuals.obj
 0002:00001c84       ??_R1A@A@3FA@?$basic_ios@DU?$char_traits@D@std@@@std@@8 10018c84     visuals.obj
 0002:00001ca0       ??_R3?$basic_ios@DU?$char_traits@D@std@@@std@@8 10018ca0     visuals.obj
 0002:00001cb0       ??_R2?$basic_ios@DU?$char_traits@D@std@@@std@@8 10018cb0     visuals.obj
 0002:00001cc0       ??_R1A@?0A@EA@?$basic_ios@DU?$char_traits@D@std@@@std@@8 10018cc0     visuals.obj
 0002:00001cdc       ??_R1A@?0A@EA@ios_base@std@@8 10018cdc     visuals.obj
 0002:00001cf8       ??_R3ios_base@std@@8       10018cf8     visuals.obj
 0002:00001d08       ??_R2ios_base@std@@8       10018d08     visuals.obj
 0002:00001d14       ??_R17?0A@EA@?$_Iosb@H@std@@8 10018d14     visuals.obj
 0002:00001d30       ??_R3?$_Iosb@H@std@@8      10018d30     visuals.obj
 0002:00001d40       ??_R2?$_Iosb@H@std@@8      10018d40     visuals.obj
 0002:00001d48       ??_R1A@?0A@EA@?$_Iosb@H@std@@8 10018d48     visuals.obj
 0002:00001d64       ??_R1A@A@3EA@ios_base@std@@8 10018d64     visuals.obj
 0002:00001d80       ??_R17A@3EA@?$_Iosb@H@std@@8 10018d80     visuals.obj
 0002:00001d9c       ??_R1BA@?0A@EA@?$basic_ostream@DU?$char_traits@D@std@@@std@@8 10018d9c     visuals.obj
 0002:00001db8       ??_R3?$basic_ostream@DU?$char_traits@D@std@@@std@@8 10018db8     visuals.obj
 0002:00001dc8       ??_R2?$basic_ostream@DU?$char_traits@D@std@@@std@@8 10018dc8     visuals.obj
 0002:00001ddc       ??_R1A@?0A@EA@?$basic_ostream@DU?$char_traits@D@std@@@std@@8 10018ddc     visuals.obj
 0002:00001df8       ??_R4bad_cast@std@@6B@     10018df8     visuals.obj
 0002:00001e0c       ??_R3bad_cast@std@@8       10018e0c     visuals.obj
 0002:00001e1c       ??_R2bad_cast@std@@8       10018e1c     visuals.obj
 0002:00001e28       ??_R1A@?0A@EA@bad_cast@std@@8 10018e28     visuals.obj
 0002:00001e44       ??_R4runtime_error@std@@6B@ 10018e44     hooks.obj
 0002:00001e58       ??_R3runtime_error@std@@8  10018e58     hooks.obj
 0002:00001e68       ??_R2runtime_error@std@@8  10018e68     hooks.obj
 0002:00001e74       ??_R1A@?0A@EA@runtime_error@std@@8 10018e74     hooks.obj
 0002:00001e90       ??_R4igameeventlistener@@6B@ 10018e90     main.obj
 0002:00001ea4       ??_R3igameeventlistener@@8 10018ea4     main.obj
 0002:00001eb4       ??_R2igameeventlistener@@8 10018eb4     main.obj
 0002:00001ebc       ??_R1A@?0A@EA@igameeventlistener@@8 10018ebc     main.obj
 0002:00001ed8       ??_R4player_hurt_listener@events@@6B@ 10018ed8     main.obj
 0002:00001eec       ??_R3player_hurt_listener@events@@8 10018eec     main.obj
 0002:00001efc       ??_R2player_hurt_listener@events@@8 10018efc     main.obj
 0002:00001f08       ??_R1A@?0A@EA@player_hurt_listener@events@@8 10018f08     main.obj
 0002:00001f24       ??_R4type_info@@6B@        10018f24     MSVCRT:std_type_info_static.obj
 0002:00001f38       ??_R3type_info@@8          10018f38     MSVCRT:std_type_info_static.obj
 0002:00001f48       ??_R2type_info@@8          10018f48     MSVCRT:std_type_info_static.obj
 0002:00001f50       ??_R1A@?0A@EA@type_info@@8 10018f50     MSVCRT:std_type_info_static.obj
 0002:00001f70       ___safe_se_handler_table   10018f70     <linker-defined>
 0002:000023ac       ___rtc_iaa                 100193ac     MSVCRT:initsect.obj
 0002:000023b0       ___rtc_izz                 100193b0     MSVCRT:initsect.obj
 0002:000023b4       ___rtc_taa                 100193b4     MSVCRT:initsect.obj
 0002:000023b8       ___rtc_tzz                 100193b8     MSVCRT:initsect.obj
 0002:000023bc       __tls_start                100193bc     MSVCRT:tlssup.obj
 0002:000023c0       __Init_thread_epoch        100193c0     MSVCRT:thread_safe_statics.obj
 0002:000023c4       __tls_end                  100193c4     MSVCRT:tlssup.obj
 0002:0000249c       __TI3?AVbad_array_new_length@std@@ 1001949c     aimbot.obj
 0002:000024ac       __CTA3?AVbad_array_new_length@std@@ 100194ac     aimbot.obj
 0002:000024bc       __CT??_R0?AVbad_array_new_length@std@@@8??0bad_array_new_length@std@@QAE@ABV01@@Z12 100194bc     aimbot.obj
 0002:000024d8       __CT??_R0?AVbad_alloc@std@@@8??0bad_alloc@std@@QAE@ABV01@@Z12 100194d8     aimbot.obj
 0002:000024f4       __CT??_R0?AVexception@std@@@8??0exception@std@@QAE@ABV01@@Z12 100194f4     aimbot.obj
 0002:00002974       __TI2?AVbad_cast@std@@     10019974     visuals.obj
 0002:00002984       __CTA2?AVbad_cast@std@@    10019984     visuals.obj
 0002:00002990       __CT??_R0?AVbad_cast@std@@@8??0bad_cast@std@@QAE@ABV01@@Z12 10019990     visuals.obj
 0002:00002a04       __CT??_R0?AVruntime_error@std@@@8??0runtime_error@std@@QAE@ABV01@@Z12 10019a04     hooks.obj
 0002:00002a20       __TI2?AVruntime_error@std@@ 10019a20     hooks.obj
 0002:00002a30       __CTA2?AVruntime_error@std@@ 10019a30     hooks.obj
 0002:00002e54       __TI2?AVbad_alloc@std@@    10019e54     MSVCRT:throw_bad_alloc.obj
 0002:00002e64       __CTA2?AVbad_alloc@std@@   10019e64     MSVCRT:throw_bad_alloc.obj
 0002:00002e70       __IMPORT_DESCRIPTOR_KERNEL32 10019e70     kernel32:KERNEL32.dll
 0002:00002e84       __IMPORT_DESCRIPTOR_MSVCP140 10019e84     msvcprt:MSVCP140.dll
 0002:00002e98       __IMPORT_DESCRIPTOR_VCRUNTIME140 10019e98     vcruntime:VCRUNTIME140.dll
 0002:00002eac       __IMPORT_DESCRIPTOR_api-ms-win-crt-runtime-l1-1-0 10019eac     ucrt:api-ms-win-crt-runtime-l1-1-0.dll
 0002:00002ec0       __IMPORT_DESCRIPTOR_api-ms-win-crt-heap-l1-1-0 10019ec0     ucrt:api-ms-win-crt-heap-l1-1-0.dll
 0002:00002ed4       __IMPORT_DESCRIPTOR_api-ms-win-crt-math-l1-1-0 10019ed4     ucrt:api-ms-win-crt-math-l1-1-0.dll
 0002:00002ee8       __IMPORT_DESCRIPTOR_api-ms-win-crt-convert-l1-1-0 10019ee8     ucrt:api-ms-win-crt-convert-l1-1-0.dll
 0002:00002efc       __IMPORT_DESCRIPTOR_api-ms-win-crt-time-l1-1-0 10019efc     ucrt:api-ms-win-crt-time-l1-1-0.dll
 0002:00002f10       __IMPORT_DESCRIPTOR_api-ms-win-crt-stdio-l1-1-0 10019f10     ucrt:api-ms-win-crt-stdio-l1-1-0.dll
 0002:00002f24       __IMPORT_DESCRIPTOR_api-ms-win-crt-string-l1-1-0 10019f24     ucrt:api-ms-win-crt-string-l1-1-0.dll
 0002:00002f38       __NULL_IMPORT_DESCRIPTOR   10019f38     kernel32:KERNEL32.dll
 0003:00000004       ?right_key_pressed@g@@3_NA 1001c004     global.obj
 0003:00000008       ?esp_options@@3PAPBDA      1001c008     menu.obj
 0003:00000014       ?hitbox_options@@3PAPBDA   1001c014     menu.obj
 0003:00000020       ?health_options@@3PAPBDA   1001c020     menu.obj
 0003:00000030       ?armor_options@@3PAPBDA    1001c030     menu.obj
 0003:00000040       ?box_options@@3PAPBDA      1001c040     menu.obj
 0003:00000050       ?aa_pitch@@3PAPBDA         1001c050     menu.obj
 0003:00000064       ?tp_options@@3PAPBDA       1001c064     menu.obj
 0003:00000070       ?font_size@menu@vars@@3HA  1001c070     vars.obj
 0003:00000074       ?menu_x@menu@vars@@3HA     1001c074     vars.obj
 0003:00000078       ?menu_y@menu@vars@@3HA     1001c078     vars.obj
 0003:0000007c       ?bar_width@menu@vars@@3HA  1001c07c     vars.obj
 0003:00000080       ?bar_height@menu@vars@@3HA 1001c080     vars.obj
 0003:00000084       ?aim_hitchance_amt@aim@vars@@3MA 1001c084     vars.obj
 0003:00000088       ?vis_watermark@vis@vars@@3_NA 1001c088     vars.obj
 0003:00000089       ?vis_user@vis@vars@@3_NA   1001c089     vars.obj
 0003:0000008a       ?misc_anti_untrusted@misc@vars@@3_NA 1001c08a     vars.obj
 0003:0000008c       ?t_r@vis@vars@@3HA         1001c08c     vars.obj
 0003:00000090       ?t_g@vis@vars@@3HA         1001c090     vars.obj
 0003:00000094       ?t_b@vis@vars@@3HA         1001c094     vars.obj
 0003:00000098       ?ct_r@vis@vars@@3HA        1001c098     vars.obj
 0003:0000009c       ?ct_g@vis@vars@@3HA        1001c09c     vars.obj
 0003:000000a0       ?ct_b@vis@vars@@3HA        1001c0a0     vars.obj
 0003:000000a4       ?local_r@vis@vars@@3HA     1001c0a4     vars.obj
 0003:000000a8       ?local_g@vis@vars@@3HA     1001c0a8     vars.obj
 0003:000000ac       ?local_b@vis@vars@@3HA     1001c0ac     vars.obj
 0003:000000b0       ?offset_x@vis@vars@@3MA    1001c0b0     vars.obj
 0003:000000b4       ?offset_y@vis@vars@@3MA    1001c0b4     vars.obj
 0003:000000b8       ?offset_z@vis@vars@@3MA    1001c0b8     vars.obj
 0003:000000bc       ?hvh_fake_lag@hvh@vars@@3HA 1001c0bc     vars.obj
 0003:000000c4       __Init_global_epoch        1001c0c4     MSVCRT:thread_safe_statics.obj
 0003:000000d0       ___security_cookie_complement 1001c0d0     MSVCRT:gs_cookie.obj
 0003:000000d4       ___security_cookie         1001c0d4     MSVCRT:gs_cookie.obj
 0003:000000d8       __fltused                  1001c0d8     MSVCRT:fltused.obj
 0003:000000dc       ___scrt_native_dllmain_reason 1001c0dc     MSVCRT:utility.obj
 0003:000000e0       ___isa_enabled             1001c0e0     MSVCRT:cpu_disp.obj
 0003:000000f0       ___scrt_ucrt_dll_is_in_use 1001c0f0     MSVCRT:ucrt_stubs.obj
 0003:000000f8       ??_R0?AVbad_array_new_length@std@@@8 1001c0f8     aimbot.obj
 0003:00000120       ??_R0?AVbad_alloc@std@@@8  1001c120     aimbot.obj
 0003:0000013c       ??_R0?AVexception@std@@@8  1001c13c     aimbot.obj
 0003:00000158       ??_R0?AVitracefilter@@@8   1001c158     aimbot.obj
 0003:00000174       ??_R0?AVtrace_filter@@@8   1001c174     aimbot.obj
 0003:00000190       ??_R0?AVbad_cast@std@@@8   1001c190     visuals.obj
 0003:000001b0       ??_R0?AV?$basic_stringbuf@DU?$char_traits@D@std@@V?$allocator@D@2@@std@@@8 1001c1b0     visuals.obj
 0003:00000200       ??_R0?AV?$basic_streambuf@DU?$char_traits@D@std@@@std@@@8 1001c200     visuals.obj
 0003:00000240       ??_R0?AV?$basic_stringstream@DU?$char_traits@D@std@@V?$allocator@D@2@@std@@@8 1001c240     visuals.obj
 0003:00000290       ??_R0?AV?$basic_iostream@DU?$char_traits@D@std@@@std@@@8 1001c290     visuals.obj
 0003:000002cc       ??_R0?AV?$basic_istream@DU?$char_traits@D@std@@@std@@@8 1001c2cc     visuals.obj
 0003:00000308       ??_R0?AV?$basic_ios@DU?$char_traits@D@std@@@std@@@8 1001c308     visuals.obj
 0003:00000340       ??_R0?AVios_base@std@@@8   1001c340     visuals.obj
 0003:0000035c       ??_R0?AV?$_Iosb@H@std@@@8  1001c35c     visuals.obj
 0003:00000378       ??_R0?AV?$basic_ostream@DU?$char_traits@D@std@@@std@@@8 1001c378     visuals.obj
 0003:000003b4       ??_R0?AVruntime_error@std@@@8 1001c3b4     hooks.obj
 0003:000003d4       ??_R0?AVigameeventlistener@@@8 1001c3d4     main.obj
 0003:000003f8       ??_R0?AVplayer_hurt_listener@events@@@8 1001c3f8     main.obj
 0003:00000424       ??_R0?AVtype_info@@@8      1001c424     MSVCRT:std_type_info_static.obj
 0003:00000440       ?random_float@?1??0u@@YAMMM@Z@4P6AMMM@ZA 1001c440     aimbot.obj
 0003:00000444       ?$TSS0@?1??random_float@u@@YAMMM@Z@4HA 1001c444     aimbot.obj
 0003:00000448       ?in_reload@?1??is_reloading@base_weapon@@QAE_NXZ@4IA 1001c448     aimbot.obj
 0003:0000044c       ?$TSS0@?1??is_reloading@base_weapon@@QAE_NXZ@4HA 1001c44c     aimbot.obj
 0003:000004a8       ?player_data@@3V?$vector@U?$pair@PAVc_baseentity@@Vvector@@@std@@V?$allocator@U?$pair@PAVc_baseentity@@Vvector@@@std@@@2@@std@@A 1001c4a8     resolver.obj
 0003:000004b4       ?counter@?1??rainbow@color@@QAE?AV2@MH@Z@4IA 1001c4b4     visuals.obj
 0003:000004e0       ?_Psave@?$_Facetptr@V?$time_put@DV?$ostreambuf_iterator@DU?$char_traits@D@std@@@std@@@std@@@std@@2PBVfacet@locale@2@B 1001c4e0     visuals.obj
 0003:000004e8       ?_OptionsStorage@?1??__local_stdio_printf_options@@9@4_KA 1001c4e8     draw.obj
 0003:000004f0       ?arial@f@@3KA              1001c4f0     fonts.obj
 0003:000004f4       ?aa_indicator@f@@3KA       1001c4f4     fonts.obj
 0003:000004f8       ?arial_blur@f@@3KA         1001c4f8     fonts.obj
 0003:000004fc       ?arial_small@f@@3KA        1001c4fc     fonts.obj
 0003:00000500       ?arial_large@f@@3KA        1001c500     fonts.obj
 0003:00000504       ?tahoma_large@f@@3KA       1001c504     fonts.obj
 0003:00000508       ?tahoma_x88@f@@3KA         1001c508     fonts.obj
 0003:0000050c       ?local@g@@3PAVc_baseentity@@A 1001c50c     global.obj
 0003:00000510       ?target@g@@3PAVc_baseentity@@A 1001c510     global.obj
 0003:00000514       ?cmd@g@@3PAVuser_cmd@@A    1001c514     global.obj
 0003:00000518       ?verified@g@@3PAVverified_user_cmd@@A 1001c518     global.obj
 0003:0000051c       ?third_person_bind@g@@3_NA 1001c51c     global.obj
 0003:0000051d       ?left_key_pressed@g@@3_NA  1001c51d     global.obj
 0003:0000051e       ?down_key_pressed@g@@3_NA  1001c51e     global.obj
 0003:0000051f       ?send_packet@g@@3_NA       1001c51f     global.obj
 0003:00000520       ?lowest_accuracy@g@@3_NA   1001c520     global.obj
 0003:00000524       ?shots_fired@g@@3HA        1001c524     global.obj
 0003:00000528       ?shots_hit@g@@3HA          1001c528     global.obj
 0003:0000052c       ?shots_missed@g@@3HA       1001c52c     global.obj
 0003:00000530       ?width@g@@3HA              1001c530     global.obj
 0003:00000534       ?height@g@@3HA             1001c534     global.obj
 0003:00000538       ?last_fake_tick@g@@3Vvector@@A 1001c538     global.obj
 0003:00000544       ?last_real_tick@g@@3Vvector@@A 1001c544     global.obj
 0003:00000550       ?client_hook@h@@3V?$unique_ptr@Vvmt_hook@@U?$default_delete@Vvmt_hook@@@std@@@std@@A 1001c550     hooks.obj
 0003:00000554       ?model_hook@h@@3V?$unique_ptr@Vvmt_hook@@U?$default_delete@Vvmt_hook@@@std@@@std@@A 1001c554     hooks.obj
 0003:00000558       ?data_hook@h@@3V?$unique_ptr@Vvmt_hook@@U?$default_delete@Vvmt_hook@@@std@@@std@@A 1001c558     hooks.obj
 0003:0000055c       ?client_mode_hook@h@@3V?$unique_ptr@Vvmt_hook@@U?$default_delete@Vvmt_hook@@@std@@@std@@A 1001c55c     hooks.obj
 0003:00000560       ?panel_hook@h@@3V?$unique_ptr@Vvmt_hook@@U?$default_delete@Vvmt_hook@@@std@@@std@@A 1001c560     hooks.obj
 0003:00000564       ?client@i@@3PAVchlclient@@A 1001c564     interfaces.obj
 0003:00000568       ?entitylist@i@@3PAVicliententitylist@@A 1001c568     interfaces.obj
 0003:0000056c       ?clientmode@i@@3PAViclientmodeshared@@A 1001c56c     interfaces.obj
 0003:00000570       ?glow_manager@i@@3PAVglow_object_manager@@A 1001c570     interfaces.obj
 0003:00000574       ?input@i@@3PAVcinput@@A    1001c574     interfaces.obj
 0003:00000578       ?mdlcache@i@@3PAVimdlcache@@A 1001c578     interfaces.obj
 0003:0000057c       ?engineclient@i@@3PAVivengineclient@@A 1001c57c     interfaces.obj
 0003:00000580       ?debugoverlay@i@@3PAVivdebugoverlay@@A 1001c580     interfaces.obj
 0003:00000584       ?enginetrace@i@@3PAVienginetrace@@A 1001c584     interfaces.obj
 0003:00000588       ?enginevgui@i@@3PAVienginevgui@@A 1001c588     interfaces.obj
 0003:0000058c       ?clientstate@i@@3PAVclient_state@@A 1001c58c     interfaces.obj
 0003:00000590       ?modelrender@i@@3PAVimodelrender@@A 1001c590     interfaces.obj
 0003:00000594       ?modelinfo@i@@3PAVivmodelinfo@@A 1001c594     interfaces.obj
 0003:00000598       ?surfaceprops@i@@3PAViphysicssurfaceprops@@A 1001c598     interfaces.obj
 0003:0000059c       ?renderview@i@@3PAVivrenderview@@A 1001c59c     interfaces.obj
 0003:000005a0       ?eventmgr@i@@3PAVigameeventmanager@@A 1001c5a0     interfaces.obj
 0003:000005a4       ?inputsystem@i@@3PAViinputsystem@@A 1001c5a4     interfaces.obj
 0003:000005a8       ?globals@i@@3PAVglobal_vars_base@@A 1001c5a8     interfaces.obj
 0003:000005ac       ?cvar@i@@3PAVicvar@@A      1001c5ac     interfaces.obj
 0003:000005b0       ?surface@i@@3PAVisurface@@A 1001c5b0     interfaces.obj
 0003:000005b4       ?panel@i@@3PAVipanel@@A    1001c5b4     interfaces.obj
 0003:000005b8       ?instance@?1??singleton@events@@SAPAV2@XZ@4PAV2@A 1001c5b8     main.obj
 0003:000005bc       ?$TSS0@?1??singleton@events@@SAPAV2@XZ@4HA 1001c5bc     main.obj
 0003:000005c0       ?items@@3PAUmenu_item_t@@A 1001c5c0     menu.obj
 0003:00001c40       ?menu_active@menu@vars@@3_NA 1001dc40     vars.obj
 0003:00001c41       ?aim_tab@aim@vars@@3_NA    1001dc41     vars.obj
 0003:00001c42       ?aim_enabled@aim@vars@@3_NA 1001dc42     vars.obj
 0003:00001c43       ?aim_on_attack@aim@vars@@3_NA 1001dc43     vars.obj
 0003:00001c44       ?total_items@menu@vars@@3HA 1001dc44     vars.obj
 0003:00001c48       ?current_pos@menu@vars@@3HA 1001dc48     vars.obj
 0003:00001c4c       ?aim_fov@aim@vars@@3MA     1001dc4c     vars.obj
 0003:00001c50       ?aim_hitbox@aim@vars@@3HA  1001dc50     vars.obj
 0003:00001c54       ?aim_auto_shoot@aim@vars@@3_NA 1001dc54     vars.obj
 0003:00001c55       ?aim_auto_stop@aim@vars@@3_NA 1001dc55     vars.obj
 0003:00001c56       ?aim_auto_scope@aim@vars@@3_NA 1001dc56     vars.obj
 0003:00001c57       ?aim_auto_revolver@aim@vars@@3_NA 1001dc57     vars.obj
 0003:00001c58       ?aim_trigger_bot@aim@vars@@3_NA 1001dc58     vars.obj
 0003:00001c59       ?aim_silent@aim@vars@@3_NA 1001dc59     vars.obj
 0003:00001c5a       ?aim_target_teammates@aim@vars@@3_NA 1001dc5a     vars.obj
 0003:00001c5b       ?aim_ignore_jumping@aim@vars@@3_NA 1001dc5b     vars.obj
 0003:00001c5c       ?aim_smooth@aim@vars@@3MA  1001dc5c     vars.obj
 0003:00001c60       ?aim_baim_after_x_shots@aim@vars@@3HA 1001dc60     vars.obj
 0003:00001c64       ?esp_tab@esp@vars@@3_NA    1001dc64     vars.obj
 0003:00001c65       ?esp_enemy_only@esp@vars@@3_NA 1001dc65     vars.obj
 0003:00001c66       ?esp_glow@esp@vars@@3_NA   1001dc66     vars.obj
 0003:00001c67       ?esp_name@esp@vars@@3_NA   1001dc67     vars.obj
 0003:00001c68       ?esp_enabled@esp@vars@@3HA 1001dc68     vars.obj
 0003:00001c6c       ?esp_box@esp@vars@@3HA     1001dc6c     vars.obj
 0003:00001c70       ?esp_fill@esp@vars@@3MA    1001dc70     vars.obj
 0003:00001c74       ?esp_glow_style@esp@vars@@3HA 1001dc74     vars.obj
 0003:00001c78       ?esp_health@esp@vars@@3HA  1001dc78     vars.obj
 0003:00001c7c       ?esp_projectiles@esp@vars@@3_NA 1001dc7c     vars.obj
 0003:00001c7d       ?esp_steam_id@esp@vars@@3_NA 1001dc7d     vars.obj
 0003:00001c7e       ?esp_flags@esp@vars@@3_NA  1001dc7e     vars.obj
 0003:00001c7f       ?esp_weapon@esp@vars@@3_NA 1001dc7f     vars.obj
 0003:00001c80       ?esp_money@esp@vars@@3_NA  1001dc80     vars.obj
 0003:00001c81       ?esp_index@esp@vars@@3_NA  1001dc81     vars.obj
 0003:00001c82       ?esp_distance@esp@vars@@3_NA 1001dc82     vars.obj
 0003:00001c83       ?esp_local_player@esp@vars@@3_NA 1001dc83     vars.obj
 0003:00001c84       ?esp_armor@esp@vars@@3HA   1001dc84     vars.obj
 0003:00001c88       ?vis_tab@vis@vars@@3_NA    1001dc88     vars.obj
 0003:00001c89       ?vis_color_tab@vis@vars@@3_NA 1001dc89     vars.obj
 0003:00001c8a       ?vis_viewmodel_tab@vis@vars@@3_NA 1001dc8a     vars.obj
 0003:00001c8b       ?vis_t_tab@vis@vars@@3_NA  1001dc8b     vars.obj
 0003:00001c8c       ?vis_ct_tab@vis@vars@@3_NA 1001dc8c     vars.obj
 0003:00001c8d       ?vis_local_tab@vis@vars@@3_NA 1001dc8d     vars.obj
 0003:00001c8e       ?vis_ambient_tab@vis@vars@@3_NA 1001dc8e     vars.obj
 0003:00001c8f       ?vis_fov_circle@vis@vars@@3_NA 1001dc8f     vars.obj
 0003:00001c90       ?vis_third_person@vis@vars@@3HA 1001dc90     vars.obj
 0003:00001c94       ?vis_night_mode@vis@vars@@3_NA 1001dc94     vars.obj
 0003:00001c95       ?vis_no_vis_recoil@vis@vars@@3_NA 1001dc95     vars.obj
 0003:00001c96       ?vis_no_scope@vis@vars@@3_NA 1001dc96     vars.obj
 0003:00001c97       ?vis_recoil_crosshair@vis@vars@@3_NA 1001dc97     vars.obj
 0003:00001c98       ?vis_viewmodel_fov@vis@vars@@3MA 1001dc98     vars.obj
 0003:00001c9c       ?vis_fov@vis@vars@@3MA     1001dc9c     vars.obj
 0003:00001ca0       ?vis_force_crosshair@vis@vars@@3_NA 1001dca0     vars.obj
 0003:00001ca1       ?vis_preserve_killfeed@vis@vars@@3_NA 1001dca1     vars.obj
 0003:00001ca2       ?vis_anti_aim_lines@vis@vars@@3_NA 1001dca2     vars.obj
 0003:00001ca3       ?vis_lby_indicator@vis@vars@@3_NA 1001dca3     vars.obj
 0003:00001ca4       ?ambient_r@vis@vars@@3MA   1001dca4     vars.obj
 0003:00001ca8       ?ambient_g@vis@vars@@3MA   1001dca8     vars.obj
 0003:00001cac       ?ambient_b@vis@vars@@3MA   1001dcac     vars.obj
 0003:00001cb0       ?hvh_tab@hvh@vars@@3_NA    1001dcb0     vars.obj
 0003:00001cb1       ?hvh_resolver@hvh@vars@@3_NA 1001dcb1     vars.obj
 0003:00001cb2       ?hvh_anti_aim@hvh@vars@@3_NA 1001dcb2     vars.obj
 0003:00001cb3       ?hvh_fake_duck@hvh@vars@@3_NA 1001dcb3     vars.obj
 0003:00001cb4       ?hvh_fake_walk@hvh@vars@@3_NA 1001dcb4     vars.obj
 0003:00001cb5       ?misc_tab@misc@vars@@3_NA  1001dcb5     vars.obj
 0003:00001cb6       ?misc_auto_hop@misc@vars@@3_NA 1001dcb6     vars.obj
 0003:00001cb7       ?misc_auto_strafe@misc@vars@@3_NA 1001dcb7     vars.obj
 0003:00001cb8       ?hvh_yaw_add@hvh@vars@@3MA 1001dcb8     vars.obj
 0003:00001cbc       ?hvh_jitter_range@hvh@vars@@3MA 1001dcbc     vars.obj
 0003:00001cc0       ?hvh_pitch@hvh@vars@@3HA   1001dcc0     vars.obj
 0003:00001cc4       ?ctag_tab@ctags@vars@@3_NA 1001dcc4     vars.obj
 0003:00001cc5       ?clan_tag_changer@ctags@vars@@3_NA 1001dcc5     vars.obj
 0003:00001cc6       ?clan_tag_changer_2@ctags@vars@@3_NA 1001dcc6     vars.obj
 0003:00001cc8       ?mbi@?1??safe@address@@SA_NV2@@Z@4U_MEMORY_BASIC_INFORMATION32@@A 1001dcc8     setup.obj
 0003:00001d54       __tls_index                1001dd54     MSVCRT:tlssup.obj
 0003:00001d58       ___scrt_current_native_startup_state 1001dd58     MSVCRT:utility.obj
 0003:00001d5c       ___scrt_native_startup_lock 1001dd5c     MSVCRT:utility.obj
 0003:00001d80       ___scrt_debugger_hook_flag 1001dd80     MSVCRT:utility_desktop.obj
 0003:000020a4       ___isa_available           1001e0a4     MSVCRT:cpu_disp.obj
 0003:000020a8       ___favor                   1001e0a8     MSVCRT:cpu_disp.obj
 0003:000020b0       ?__type_info_root_node@@3U__type_info_node@@A 1001e0b0     MSVCRT:tncleanup.obj
 0003:000020b8       ?_OptionsStorage@?1??__local_stdio_scanf_options@@9@4_KA 1001e0b8     MSVCRT:default_local_stdio_options.obj
 0003:000020c0       ___dyn_tls_init_callback   1001e0c0     <common>

 entry point at        0001:00014c2c

 Static symbols

 0000:fffde000       .debug$S                   10000000     kernel32:KERNEL32.dll
 0000:fffde000       .debug$S                   10000000     kernel32:KERNEL32.dll
 0000:fffde000       .debug$S                   10000000     kernel32:KERNEL32.dll
 0000:fffde000       .debug$S                   10000000     kernel32:KERNEL32.dll
 0000:fffde000       .debug$S                   10000000     kernel32:KERNEL32.dll
 0000:fffde000       .debug$S                   10000000     kernel32:KERNEL32.dll
 0000:fffde000       .debug$S                   10000000     kernel32:KERNEL32.dll
 0000:fffde000       .debug$S                   10000000     kernel32:KERNEL32.dll
 0000:fffde000       .debug$S                   10000000     kernel32:KERNEL32.dll
 0000:fffde000       .debug$S                   10000000     kernel32:KERNEL32.dll
 0000:fffde000       .debug$S                   10000000     kernel32:KERNEL32.dll
 0000:fffde000       .debug$S                   10000000     kernel32:KERNEL32.dll
 0000:fffde000       .debug$S                   10000000     kernel32:KERNEL32.dll
 0000:fffde000       .debug$S                   10000000     kernel32:KERNEL32.dll
 0000:fffde000       .debug$S                   10000000     kernel32:KERNEL32.dll
 0000:fffde000       .debug$S                   10000000     kernel32:KERNEL32.dll
 0000:fffde000       .debug$S                   10000000     kernel32:KERNEL32.dll
 0000:fffde000       .debug$S                   10000000     kernel32:KERNEL32.dll
 0000:fffde000       .debug$S                   10000000     kernel32:KERNEL32.dll
 0000:fffde000       .debug$S                   10000000     kernel32:KERNEL32.dll
 0000:fffde000       .debug$S                   10000000     kernel32:KERNEL32.dll
 0000:fffde000       .debug$S                   10000000     kernel32:KERNEL32.dll
 0000:fffde000       .debug$S                   10000000     kernel32:KERNEL32.dll
 0000:fffde000       .debug$S                   10000000     kernel32:KERNEL32.dll
 0000:fffde000       .debug$S                   10000000     kernel32:KERNEL32.dll
 0000:fffde000       .debug$S                   10000000     kernel32:KERNEL32.dll
 0000:fffde000       .debug$S                   10000000     kernel32:KERNEL32.dll
 0000:fffde000       .debug$S                   10000000     kernel32:KERNEL32.dll
 0000:fffde000       .debug$S                   10000000     kernel32:KERNEL32.dll
 0000:fffde000       .debug$S                   10000000     kernel32:KERNEL32.dll
 0000:fffde000       .debug$S                   10000000     kernel32:KERNEL32.dll
 0000:fffde000       .debug$S                   10000000     kernel32:KERNEL32.dll
 0000:fffde000       .debug$S                   10000000     msvcprt:MSVCP140.dll
 0000:fffde000       .debug$S                   10000000     msvcprt:MSVCP140.dll
 0000:fffde000       .debug$S                   10000000     msvcprt:MSVCP140.dll
 0000:fffde000       .debug$S                   10000000     msvcprt:MSVCP140.dll
 0000:fffde000       .debug$S                   10000000     msvcprt:MSVCP140.dll
 0000:fffde000       .debug$S                   10000000     msvcprt:MSVCP140.dll
 0000:fffde000       .debug$S                   10000000     msvcprt:MSVCP140.dll
 0000:fffde000       .debug$S                   10000000     msvcprt:MSVCP140.dll
 0000:fffde000       .debug$S                   10000000     msvcprt:MSVCP140.dll
 0000:fffde000       .debug$S                   10000000     msvcprt:MSVCP140.dll
 0000:fffde000       .debug$S                   10000000     msvcprt:MSVCP140.dll
 0000:fffde000       .debug$S                   10000000     msvcprt:MSVCP140.dll
 0000:fffde000       .debug$S                   10000000     msvcprt:MSVCP140.dll
 0000:fffde000       .debug$S                   10000000     msvcprt:MSVCP140.dll
 0000:fffde000       .debug$S                   10000000     msvcprt:MSVCP140.dll
 0000:fffde000       .debug$S                   10000000     msvcprt:MSVCP140.dll
 0000:fffde000       .debug$S                   10000000     msvcprt:MSVCP140.dll
 0000:fffde000       .debug$S                   10000000     msvcprt:MSVCP140.dll
 0000:fffde000       .debug$S                   10000000     msvcprt:MSVCP140.dll
 0000:fffde000       .debug$S                   10000000     msvcprt:MSVCP140.dll
 0000:fffde000       .debug$S                   10000000     msvcprt:MSVCP140.dll
 0000:fffde000       .debug$S                   10000000     msvcprt:MSVCP140.dll
 0000:fffde000       .debug$S                   10000000     msvcprt:MSVCP140.dll
 0000:fffde000       .debug$S                   10000000     msvcprt:MSVCP140.dll
 0000:fffde000       .debug$S                   10000000     msvcprt:MSVCP140.dll
 0000:fffde000       .debug$S                   10000000     msvcprt:MSVCP140.dll
 0000:fffde000       .debug$S                   10000000     msvcprt:MSVCP140.dll
 0000:fffde000       .debug$S                   10000000     msvcprt:MSVCP140.dll
 0000:fffde000       .debug$S                   10000000     msvcprt:MSVCP140.dll
 0000:fffde000       .debug$S                   10000000     msvcprt:MSVCP140.dll
 0000:fffde000       .debug$S                   10000000     msvcprt:MSVCP140.dll
 0000:fffde000       .debug$S                   10000000     msvcprt:MSVCP140.dll
 0000:fffde000       .debug$S                   10000000     msvcprt:MSVCP140.dll
 0000:fffde000       .debug$S                   10000000     msvcprt:MSVCP140.dll
 0000:fffde000       .debug$S                   10000000     msvcprt:MSVCP140.dll
 0000:fffde000       .debug$S                   10000000     msvcprt:MSVCP140.dll
 0000:fffde000       .debug$S                   10000000     msvcprt:MSVCP140.dll
 0000:fffde000       .debug$S                   10000000     msvcprt:MSVCP140.dll
 0000:fffde000       .debug$S                   10000000     msvcprt:MSVCP140.dll
 0000:fffde000       .debug$S                   10000000     msvcprt:MSVCP140.dll
 0000:fffde000       .debug$S                   10000000     msvcprt:MSVCP140.dll
 0000:fffde000       .debug$S                   10000000     msvcprt:MSVCP140.dll
 0000:fffde000       .debug$S                   10000000     msvcprt:MSVCP140.dll
 0000:fffde000       .debug$S                   10000000     msvcprt:MSVCP140.dll
 0000:fffde000       .debug$S                   10000000     msvcprt:MSVCP140.dll
 0000:fffde000       .debug$S                   10000000     msvcprt:MSVCP140.dll
 0000:fffde000       .debug$S                   10000000     msvcprt:MSVCP140.dll
 0000:fffde000       .debug$S                   10000000     msvcprt:MSVCP140.dll
 0000:fffde000       .debug$S                   10000000     msvcprt:MSVCP140.dll
 0000:fffde000       .debug$S                   10000000     msvcprt:MSVCP140.dll
 0000:fffde000       .debug$S                   10000000     msvcprt:MSVCP140.dll
 0000:fffde000       .debug$S                   10000000     msvcprt:MSVCP140.dll
 0000:fffde000       .debug$S                   10000000     msvcprt:MSVCP140.dll
 0000:fffde000       .debug$S                   10000000     msvcprt:MSVCP140.dll
 0000:fffde000       .debug$S                   10000000     msvcprt:MSVCP140.dll
 0000:fffde000       .debug$S                   10000000     msvcprt:MSVCP140.dll
 0000:fffde000       .debug$S                   10000000     vcruntime:VCRUNTIME140.dll
 0000:fffde000       .debug$S                   10000000     vcruntime:VCRUNTIME140.dll
 0000:fffde000       .debug$S                   10000000     vcruntime:VCRUNTIME140.dll
 0000:fffde000       .debug$S                   10000000     vcruntime:VCRUNTIME140.dll
 0000:fffde000       .debug$S                   10000000     vcruntime:VCRUNTIME140.dll
 0000:fffde000       .debug$S                   10000000     vcruntime:VCRUNTIME140.dll
 0000:fffde000       .debug$S                   10000000     vcruntime:VCRUNTIME140.dll
 0000:fffde000       .debug$S                   10000000     vcruntime:VCRUNTIME140.dll
 0000:fffde000       .debug$S                   10000000     vcruntime:VCRUNTIME140.dll
 0000:fffde000       .debug$S                   10000000     vcruntime:VCRUNTIME140.dll
 0000:fffde000       .debug$S                   10000000     vcruntime:VCRUNTIME140.dll
 0000:fffde000       .debug$S                   10000000     vcruntime:VCRUNTIME140.dll
 0000:fffde000       .debug$S                   10000000     vcruntime:VCRUNTIME140.dll
 0000:fffde000       .debug$S                   10000000     vcruntime:VCRUNTIME140.dll
 0000:fffde000       .debug$S                   10000000     vcruntime:VCRUNTIME140.dll
 0000:fffde000       .debug$S                   10000000     ucrt:api-ms-win-crt-convert-l1-1-0.dll
 0000:fffde000       .debug$S                   10000000     ucrt:api-ms-win-crt-heap-l1-1-0.dll
 0000:fffde000       .debug$S                   10000000     ucrt:api-ms-win-crt-heap-l1-1-0.dll
 0000:fffde000       .debug$S                   10000000     ucrt:api-ms-win-crt-heap-l1-1-0.dll
 0000:fffde000       .debug$S                   10000000     ucrt:api-ms-win-crt-heap-l1-1-0.dll
 0000:fffde000       .debug$S                   10000000     ucrt:api-ms-win-crt-math-l1-1-0.dll
 0000:fffde000       .debug$S                   10000000     ucrt:api-ms-win-crt-math-l1-1-0.dll
 0000:fffde000       .debug$S                   10000000     ucrt:api-ms-win-crt-math-l1-1-0.dll
 0000:fffde000       .debug$S                   10000000     ucrt:api-ms-win-crt-math-l1-1-0.dll
 0000:fffde000       .debug$S                   10000000     ucrt:api-ms-win-crt-math-l1-1-0.dll
 0000:fffde000       .debug$S                   10000000     ucrt:api-ms-win-crt-math-l1-1-0.dll
 0000:fffde000       .debug$S                   10000000     ucrt:api-ms-win-crt-math-l1-1-0.dll
 0000:fffde000       .debug$S                   10000000     ucrt:api-ms-win-crt-runtime-l1-1-0.dll
 0000:fffde000       .debug$S                   10000000     ucrt:api-ms-win-crt-runtime-l1-1-0.dll
 0000:fffde000       .debug$S                   10000000     ucrt:api-ms-win-crt-runtime-l1-1-0.dll
 0000:fffde000       .debug$S                   10000000     ucrt:api-ms-win-crt-runtime-l1-1-0.dll
 0000:fffde000       .debug$S                   10000000     ucrt:api-ms-win-crt-runtime-l1-1-0.dll
 0000:fffde000       .debug$S                   10000000     ucrt:api-ms-win-crt-runtime-l1-1-0.dll
 0000:fffde000       .debug$S                   10000000     ucrt:api-ms-win-crt-runtime-l1-1-0.dll
 0000:fffde000       .debug$S                   10000000     ucrt:api-ms-win-crt-runtime-l1-1-0.dll
 0000:fffde000       .debug$S                   10000000     ucrt:api-ms-win-crt-runtime-l1-1-0.dll
 0000:fffde000       .debug$S                   10000000     ucrt:api-ms-win-crt-runtime-l1-1-0.dll
 0000:fffde000       .debug$S                   10000000     ucrt:api-ms-win-crt-runtime-l1-1-0.dll
 0000:fffde000       .debug$S                   10000000     ucrt:api-ms-win-crt-runtime-l1-1-0.dll
 0000:fffde000       .debug$S                   10000000     ucrt:api-ms-win-crt-runtime-l1-1-0.dll
 0000:fffde000       .debug$S                   10000000     ucrt:api-ms-win-crt-stdio-l1-1-0.dll
 0000:fffde000       .debug$S                   10000000     ucrt:api-ms-win-crt-string-l1-1-0.dll
 0000:fffde000       .debug$S                   10000000     ucrt:api-ms-win-crt-time-l1-1-0.dll
 0000:fffde000       .debug$S                   10000000     ucrt:api-ms-win-crt-time-l1-1-0.dll
 0001:00000000       ??__Eplayer_data@@YAXXZ    10001000 f   resolver.obj
 0001:00000020       ??__Elast_fake_tick@g@@YAXXZ 10001020 f   global.obj
 0001:00000030       ??__Elast_real_tick@g@@YAXXZ 10001030 f   global.obj
 0001:00000040       ??__Eclient_hook@h@@YAXXZ  10001040 f   hooks.obj
 0001:00000060       ??__Eclient_mode_hook@h@@YAXXZ 10001060 f   hooks.obj
 0001:00000080       ??__Edata_hook@h@@YAXXZ    10001080 f   hooks.obj
 0001:000000a0       ??__Emodel_hook@h@@YAXXZ   100010a0 f   hooks.obj
 0001:000000c0       ??__Epanel_hook@h@@YAXXZ   100010c0 f   hooks.obj
 0001:000000e0       ??__Eitems@@YAXXZ          100010e0 f   menu.obj
 0001:0000010a       ??__E_Fac_tidy_reg@std@@YAXXZ 1000110a f   msvcprt:locale0_implib.obj
 0001:0000047d       __catch$??$_Emplace_reallocate@H@?$vector@HV?$allocator@H@std@@@std@@QAEPAHQAH$$QAH@Z$0 1000147d f i aimbot.obj
 0001:00003638       $LN11                      10004638     aimbot.obj
 0001:0000364c       $LN10                      1000464c     aimbot.obj
 0001:00004eec       $LN10                      10005eec     hvh.obj
 0001:00004f60       ?normalize_yaw@u@@YAMM@Z   10005f60 f   hvh.obj
 0001:00004f60       ?normalize_yaw@u@@YAMM@Z   10005f60 f   setup.obj
 0001:00006a76       __catch$??$?6DU?$char_traits@D@std@@D@std@@YAAAV?$basic_ostream@DU?$char_traits@D@std@@@0@AAV10@ABU?$_Timeobj@DPBUtm@@@0@@Z$0 10007a76 f i visuals.obj
 0001:00006dda       __catch$??$?6U?$char_traits@D@std@@@std@@YAAAV?$basic_ostream@DU?$char_traits@D@std@@@0@AAV10@PBD@Z$0 10007dda f i visuals.obj
 0001:000070af       __catch$??$_Insert_string@DU?$char_traits@D@std@@I@std@@YAAAV?$basic_ostream@DU?$char_traits@D@std@@@0@AAV10@QBDI@Z$0 100080af f i visuals.obj
 0001:0000d6e0       _localtime                 1000e6e0 f   visuals.obj
 0001:0000d720       _time                      1000e720 f   visuals.obj
 0001:0000e4e2       __catch$?release@vmt_hook@@QAEXXZ$0 1000f4e2 f i hooks.obj
 0001:0000fb70       $LN26                      10010b70     menu.obj
 0001:0000ff88       $LN42                      10010f88     menu.obj
 0001:0000ff98       $LN43                      10010f98     menu.obj
 0001:000119cc       $LN20                      100129cc     checksum_crc.obj
 0001:00011a70       ??$get_method@Vaddress@@@u@@YA?AVaddress@@V1@I@Z 10012a70 f   setup.obj
 0001:000134c0       ?normalize_angle@u@@YA?AVvector@@V2@@Z 100144c0 f   setup.obj
 0001:00013530       ?normalize_pitch@u@@YAMM@Z 10014530 f   setup.obj
 0001:000139ae       __catch$?setup@vmt_hook@@QAE_NPAXPBD@Z$0 100149ae f i setup.obj
 0001:00013ad1       __catch$?setup@vmt_hook@@QAE_NPAXPBD@Z$2 10014ad1 f i setup.obj
 0001:000141ee       ?__scrt_initialize_thread_safe_statics@@YAHXZ 100151ee f   MSVCRT:thread_safe_statics.obj
 0001:00014215       ?__scrt_initialize_thread_safe_statics_platform_specific@@YAXXZ 10015215 f   MSVCRT:thread_safe_statics.obj
 0001:00014297       ?__scrt_uninitialize_thread_safe_statics@@YAXXZ 10015297 f   MSVCRT:thread_safe_statics.obj
 0001:00014410       $$000000                   10015410     MSVCRT:chkstk.obj
 0001:00014460       ?find_pe_section@@YAPAU_IMAGE_SECTION_HEADER@@QAEI@Z 10015460 f   MSVCRT:utility.obj
 0001:00014911       ?dllmain_crt_dispatch@@YGHQAUHINSTANCE__@@KQAX@Z 10015911 f   MSVCRT:dll_dllmain.obj
 0001:00014964       ?dllmain_crt_process_attach@@YAHQAUHINSTANCE__@@QAX@Z 10015964 f   MSVCRT:dll_dllmain.obj
 0001:00014a6b       ?dllmain_crt_process_detach@@YAH_N@Z 10015a6b f   MSVCRT:dll_dllmain.obj
 0001:00014afb       ?dllmain_dispatch@@YAHQAUHINSTANCE__@@KQAX@Z 10015afb f   MSVCRT:dll_dllmain.obj
 0001:00014c01       ?dllmain_raw@@YGHQAUHINSTANCE__@@KQAX@Z 10015c01 f   MSVCRT:dll_dllmain.obj
 0001:000150c0       $$000000                   100160c0     MSVCRT:sehprolg4.obj
 0001:0001514a       ___get_entropy             1001614a f   MSVCRT:gs_support.obj
 0001:000153e0       __ehhandler$??$_Deallocate@$07$0A@@std@@YAXPAXI@Z 100163e0 f   aimbot.obj
 0001:00015400       __ehhandler$??$_Emplace_reallocate@H@?$vector@HV?$allocator@H@std@@@std@@QAEPAHQAH$$QAH@Z 10016400 f   aimbot.obj
 0001:00015420       __ehhandler$??0?$vector@HV?$allocator@H@std@@@std@@QAE@XZ 10016420 f   aimbot.obj
 0001:00015420       __ehhandler$??$?0U?$default_delete@Vvmt_hook@@@std@@$0A@@?$unique_ptr@Vvmt_hook@@U?$default_delete@Vvmt_hook@@@std@@@std@@QAE@XZ 10016420 f   hooks.obj
 0001:00015420       __ehhandler$??1vmt_hook@@QAE@XZ 10016420 f   hooks.obj
 0001:00015420       __ehhandler$??0?$vector@U?$pair@PAVc_baseentity@@Vvector@@@std@@V?$allocator@U?$pair@PAVc_baseentity@@Vvector@@@std@@@2@@std@@QAE@XZ 10016420 f   resolver.obj
 0001:00015420       __ehhandler$??$?0U?$default_delete@Vvmt_hook@@@std@@$0A@@?$unique_ptr@Vvmt_hook@@U?$default_delete@Vvmt_hook@@@std@@@std@@QAE@PAVvmt_hook@@@Z 10016420 f   setup.obj
 0001:00015420       __ehhandler$?release@?$unique_ptr@Vvmt_hook@@U?$default_delete@Vvmt_hook@@@std@@@std@@QAEPAVvmt_hook@@XZ 10016420 f   setup.obj
 0001:00015420       __ehhandler$?reset@?$unique_ptr@Vvmt_hook@@U?$default_delete@Vvmt_hook@@@std@@@std@@QAEXPAVvmt_hook@@@Z 10016420 f   setup.obj
 0001:00015420       __ehhandler$??$?0U?$default_delete@V_Facet_base@std@@@std@@$0A@@?$unique_ptr@V_Facet_base@std@@U?$default_delete@V_Facet_base@std@@@2@@std@@QAE@PAV_Facet_base@1@@Z 10016420 f   visuals.obj
 0001:00015420       __ehhandler$??0?$basic_string@DU?$char_traits@D@std@@V?$allocator@D@2@@std@@QAE@$$QAV01@@Z 10016420 f   visuals.obj
 0001:00015420       __ehhandler$??0?$basic_string@DU?$char_traits@D@std@@V?$allocator@D@2@@std@@QAE@ABV?$allocator@D@1@@Z 10016420 f   visuals.obj
 0001:00015420       __ehhandler$??0?$basic_string@DU?$char_traits@D@std@@V?$allocator@D@2@@std@@QAE@XZ 10016420 f   visuals.obj
 0001:00015420       __ehhandler$?_Tidy@?$basic_stringbuf@DU?$char_traits@D@std@@V?$allocator@D@2@@std@@IAEXXZ 10016420 f   visuals.obj
 0001:00015420       __ehhandler$?release@?$unique_ptr@V_Facet_base@std@@U?$default_delete@V_Facet_base@std@@@2@@std@@QAEPAV_Facet_base@2@XZ 10016420 f   visuals.obj
 0001:00015440       __ehhandler$?_Tidy@?$vector@HV?$allocator@H@std@@@std@@AAEXXZ 10016440 f   aimbot.obj
 0001:00015440       __ehhandler$?_Tidy@?$vector@U?$pair@PAVc_baseentity@@Vvector@@@std@@V?$allocator@U?$pair@PAVc_baseentity@@Vvector@@@std@@@2@@std@@AAEXXZ 10016440 f   resolver.obj
 0001:00015460       __unwindfunclet$?get_hitboxes@a@@YAHPAVc_baseentity@@@Z$0 10016460 f   aimbot.obj
 0001:00015468       __ehhandler$?get_hitboxes@a@@YAHPAVc_baseentity@@@Z 10016468 f   aimbot.obj
 0001:00015490       __unwindfunclet$?is_reloading@base_weapon@@QAE_NXZ$0 10016490 f   aimbot.obj
 0001:0001549c       __ehhandler$?is_reloading@base_weapon@@QAE_NXZ 1001649c f   aimbot.obj
 0001:000154c0       __unwindfunclet$??0?$basic_string@DU?$char_traits@D@std@@V?$allocator@D@2@@std@@QAE@ABV01@IIABV?$allocator@D@1@@Z$0 100164c0 f   misc.obj
 0001:000154c0       __unwindfunclet$??0?$basic_string@DU?$char_traits@D@std@@V?$allocator@D@2@@std@@QAE@QBD@Z$0 100164c0 f   misc.obj
 0001:000154c0       __unwindfunclet$??$?0PADX@?$basic_string@DU?$char_traits@D@std@@V?$allocator@D@2@@std@@QAE@PAD0ABV?$allocator@D@1@@Z$0 100164c0 f   visuals.obj
 0001:000154c8       __ehhandler$??0?$basic_string@DU?$char_traits@D@std@@V?$allocator@D@2@@std@@QAE@ABV01@IIABV?$allocator@D@1@@Z 100164c8 f   misc.obj
 0001:000154c8       __ehhandler$??0?$basic_string@DU?$char_traits@D@std@@V?$allocator@D@2@@std@@QAE@QBD@Z 100164c8 f   misc.obj
 0001:000154c8       __ehhandler$??$?0PADX@?$basic_string@DU?$char_traits@D@std@@V?$allocator@D@2@@std@@QAE@PAD0ABV?$allocator@D@1@@Z 100164c8 f   visuals.obj
 0001:000154f0       __ehhandler$?_Tidy_deallocate@?$basic_string@DU?$char_traits@D@std@@V?$allocator@D@2@@std@@AAEXXZ 100164f0 f   misc.obj
 0001:000154f0       __ehhandler$?clear@?$vector@U?$pair@PAVc_baseentity@@Vvector@@@std@@V?$allocator@U?$pair@PAVc_baseentity@@Vvector@@@std@@@2@@std@@QAEXXZ 100164f0 f   setup.obj
 0001:00015510       __ehhandler$?c_str@?$basic_string@DU?$char_traits@D@std@@V?$allocator@D@2@@std@@QBEPBDXZ 10016510 f   misc.obj
 0001:00015510       __ehhandler$?clear@?$basic_string@DU?$char_traits@D@std@@V?$allocator@D@2@@std@@QAEXXZ 10016510 f   misc.obj
 0001:00015510       __ehhandler$??1sentry@?$basic_ostream@DU?$char_traits@D@std@@@std@@QAE@XZ 10016510 f   visuals.obj
 0001:00015510       __ehhandler$?data@?$basic_string@DU?$char_traits@D@std@@V?$allocator@D@2@@std@@QBEPBDXZ 10016510 f   visuals.obj
 0001:00015510       __ehhandler$?find@?$basic_string@DU?$char_traits@D@std@@V?$allocator@D@2@@std@@QBEIQBDI@Z 10016510 f   visuals.obj
 0001:00015530       __unwindfunclet$?clan_tag@m@@YAXXZ$0 10016530 f   misc.obj
 0001:00015530       __unwindfunclet$?clan_tag_og@m@@YAXXZ$0 10016530 f   misc.obj
 0001:00015538       __unwindfunclet$?clan_tag@m@@YAXXZ$1 10016538 f   misc.obj
 0001:00015538       __unwindfunclet$?clan_tag_og@m@@YAXXZ$1 10016538 f   misc.obj
 0001:00015540       __ehhandler$?clan_tag@m@@YAXXZ 10016540 f   misc.obj
 0001:00015540       __ehhandler$?clan_tag_og@m@@YAXXZ 10016540 f   misc.obj
 0001:00015570       __unwindfunclet$?crosshair@m@@YAXXZ$0 10016570 f   misc.obj
 0001:0001557c       __unwindfunclet$?crosshair@m@@YAXXZ$1 1001657c f   misc.obj
 0001:00015588       __ehhandler$?crosshair@m@@YAXXZ 10016588 f   misc.obj
 0001:000155b0       __unwindfunclet$?set_clan_tag@m@@YAXPBD@Z$0 100165b0 f   misc.obj
 0001:000155bc       __ehhandler$?set_clan_tag@m@@YAXPBD@Z 100165bc f   misc.obj
 0001:000155e0       __unwindfunclet$?viewmodel@m@@YAXXZ$0 100165e0 f   misc.obj
 0001:000155ec       __unwindfunclet$?viewmodel@m@@YAXXZ$1 100165ec f   misc.obj
 0001:000155f8       __unwindfunclet$?viewmodel@m@@YAXXZ$2 100165f8 f   misc.obj
 0001:00015604       __ehhandler$?viewmodel@m@@YAXXZ 10016604 f   misc.obj
 0001:00015620       __unwindfunclet$??$?6DU?$char_traits@D@std@@D@std@@YAAAV?$basic_ostream@DU?$char_traits@D@std@@@0@AAV10@ABU?$_Timeobj@DPBUtm@@@0@@Z$2 10016620 f   visuals.obj
 0001:00015628       __unwindfunclet$??$?6DU?$char_traits@D@std@@D@std@@YAAAV?$basic_ostream@DU?$char_traits@D@std@@@0@AAV10@ABU?$_Timeobj@DPBUtm@@@0@@Z$3 10016628 f   visuals.obj
 0001:00015630       __ehhandler$??$?6DU?$char_traits@D@std@@D@std@@YAAAV?$basic_ostream@DU?$char_traits@D@std@@@0@AAV10@ABU?$_Timeobj@DPBUtm@@@0@@Z 10016630 f   visuals.obj
 0001:00015650       __unwindfunclet$??$?6U?$char_traits@D@std@@@std@@YAAAV?$basic_ostream@DU?$char_traits@D@std@@@0@AAV10@PBD@Z$2 10016650 f   visuals.obj
 0001:00015658       __ehhandler$??$?6U?$char_traits@D@std@@@std@@YAAAV?$basic_ostream@DU?$char_traits@D@std@@@0@AAV10@PBD@Z 10016658 f   visuals.obj
 0001:00015680       __unwindfunclet$??$_Insert_string@DU?$char_traits@D@std@@I@std@@YAAAV?$basic_ostream@DU?$char_traits@D@std@@@0@AAV10@QBDI@Z$2 10016680 f   visuals.obj
 0001:00015688       __ehhandler$??$_Insert_string@DU?$char_traits@D@std@@I@std@@YAAAV?$basic_ostream@DU?$char_traits@D@std@@@0@AAV10@QBDI@Z 10016688 f   visuals.obj
 0001:000156b0       __unwindfunclet$??$use_facet@V?$time_put@DV?$ostreambuf_iterator@DU?$char_traits@D@std@@@std@@@std@@@std@@YAABV?$time_put@DV?$ostreambuf_iterator@DU?$char_traits@D@std@@@std@@@0@ABVlocale@0@@Z$0 100166b0 f   visuals.obj
 0001:000156b9       __unwindfunclet$??$use_facet@V?$time_put@DV?$ostreambuf_iterator@DU?$char_traits@D@std@@@std@@@std@@@std@@YAABV?$time_put@DV?$ostreambuf_iterator@DU?$char_traits@D@std@@@std@@@0@ABVlocale@0@@Z$1 100166b9 f   visuals.obj
 0001:000156c1       __ehhandler$??$use_facet@V?$time_put@DV?$ostreambuf_iterator@DU?$char_traits@D@std@@@std@@@std@@@std@@YAABV?$time_put@DV?$ostreambuf_iterator@DU?$char_traits@D@std@@@std@@@0@ABVlocale@0@@Z 100166c1 f   visuals.obj
 0001:000156e0       __unwindfunclet$??0?$basic_stringbuf@DU?$char_traits@D@std@@V?$allocator@D@2@@std@@QAE@H@Z$0 100166e0 f   visuals.obj
 0001:000156e9       __ehhandler$??0?$basic_stringbuf@DU?$char_traits@D@std@@V?$allocator@D@2@@std@@QAE@H@Z 100166e9 f   visuals.obj
 0001:00015710       __unwindfunclet$??0?$basic_stringstream@DU?$char_traits@D@std@@V?$allocator@D@2@@std@@QAE@H@Z$0 10016710 f   visuals.obj
 0001:0001572d       __unwindfunclet$??0?$basic_stringstream@DU?$char_traits@D@std@@V?$allocator@D@2@@std@@QAE@H@Z$1 1001672d f   visuals.obj
 0001:00015739       __ehhandler$??0?$basic_stringstream@DU?$char_traits@D@std@@V?$allocator@D@2@@std@@QAE@H@Z 10016739 f   visuals.obj
 0001:00015760       __unwindfunclet$??0sentry@?$basic_ostream@DU?$char_traits@D@std@@@std@@QAE@AAV12@@Z$0 10016760 f   visuals.obj
 0001:00015768       __ehhandler$??0sentry@?$basic_ostream@DU?$char_traits@D@std@@@std@@QAE@AAV12@@Z 10016768 f   visuals.obj
 0001:00015790       __ehhandler$??1_Sentry_base@?$basic_ostream@DU?$char_traits@D@std@@@std@@QAE@XZ 10016790 f   visuals.obj
 0001:000157b0       __unwindfunclet$?arrows@v@@YAXXZ$0 100167b0 f   visuals.obj
 0001:000157bc       __unwindfunclet$?arrows@v@@YAXXZ$1 100167bc f   visuals.obj
 0001:000157c8       __unwindfunclet$?arrows@v@@YAXXZ$2 100167c8 f   visuals.obj
 0001:000157d4       __ehhandler$?arrows@v@@YAXXZ 100167d4 f   visuals.obj
 0001:000157f0       __unwindfunclet$?players@v@@YAXMMMMUplayer_info_s@@PAVc_baseentity@@Vcolor@@KVvector@@33@Z$0 100167f0 f   visuals.obj
 0001:000157f8       __ehhandler$?players@v@@YAXMMMMUplayer_info_s@@PAVc_baseentity@@Vcolor@@KVvector@@33@Z 100167f8 f   visuals.obj
 0001:00015820       __unwindfunclet$?projectiles@v@@YAXPAVc_baseentity@@Vcolor@@K@Z$0 10016820 f   visuals.obj
 0001:00015828       __unwindfunclet$?projectiles@v@@YAXPAVc_baseentity@@Vcolor@@K@Z$1 10016828 f   visuals.obj
 0001:00015830       __ehhandler$?projectiles@v@@YAXPAVc_baseentity@@Vcolor@@K@Z 10016830 f   visuals.obj
 0001:00015860       __unwindfunclet$?str@?$basic_stringbuf@DU?$char_traits@D@std@@V?$allocator@D@2@@std@@QBE?AV?$basic_string@DU?$char_traits@D@std@@V?$allocator@D@2@@2@XZ$0 10016860 f   visuals.obj
 0001:00015868       __ehhandler$?str@?$basic_stringbuf@DU?$char_traits@D@std@@V?$allocator@D@2@@std@@QBE?AV?$basic_string@DU?$char_traits@D@std@@V?$allocator@D@2@@2@XZ 10016868 f   visuals.obj
 0001:00015890       __unwindfunclet$?user@v@@YAXXZ$0 10016890 f   visuals.obj
 0001:0001589b       __unwindfunclet$?user@v@@YAXXZ$1 1001689b f   visuals.obj
 0001:000158bd       __unwindfunclet$?user@v@@YAXXZ$3 100168bd f   visuals.obj
 0001:000158c5       __unwindfunclet$?user@v@@YAXXZ$4 100168c5 f   visuals.obj
 0001:000158cd       __unwindfunclet$?user@v@@YAXXZ$5 100168cd f   visuals.obj
 0001:000158d5       __unwindfunclet$?user@v@@YAXXZ$6 100168d5 f   visuals.obj
 0001:000158dd       __ehhandler$?user@v@@YAXXZ 100168dd f   visuals.obj
 0001:00015910       __unwindfunclet$?watermark@v@@YAXXZ$0 10016910 f   visuals.obj
 0001:0001591b       __unwindfunclet$?watermark@v@@YAXXZ$1 1001691b f   visuals.obj
 0001:0001593a       __unwindfunclet$?watermark@v@@YAXXZ$3 1001693a f   visuals.obj
 0001:00015945       __unwindfunclet$?watermark@v@@YAXXZ$4 10016945 f   visuals.obj
 0001:0001594d       __unwindfunclet$?watermark@v@@YAXXZ$5 1001694d f   visuals.obj
 0001:00015955       __unwindfunclet$?watermark@v@@YAXXZ$6 10016955 f   visuals.obj
 0001:00015960       __ehhandler$?watermark@v@@YAXXZ 10016960 f   visuals.obj
 0001:00015990       __ehhandler$?release@vmt_hook@@QAEXXZ 10016990 f   hooks.obj
 0001:000159b0       __unwindfunclet$?singleton@events@@SAPAV1@XZ$0 100169b0 f   main.obj
 0001:000159bc       __ehhandler$?singleton@events@@SAPAV1@XZ 100169bc f   main.obj
 0001:000159e0       __unwindfunclet$?add_menu_entry@menu@@YAHHV?$basic_string@DU?$char_traits@D@std@@V?$allocator@D@2@@std@@PAHHHH@Z$0 100169e0 f   menu.obj
 0001:000159e0       __unwindfunclet$?add_menu_entry@menu@@YAHHV?$basic_string@DU?$char_traits@D@std@@V?$allocator@D@2@@std@@PAMMMM@Z$0 100169e0 f   menu.obj
 0001:000159e0       __unwindfunclet$?add_menu_entry@menu@@YAHHV?$basic_string@DU?$char_traits@D@std@@V?$allocator@D@2@@std@@PA_N@Z$0 100169e0 f   menu.obj
 0001:000159e0       __unwindfunclet$?add_menu_entry_int_string@menu@@YAHHV?$basic_string@DU?$char_traits@D@std@@V?$allocator@D@2@@std@@PAHHHH@Z$0 100169e0 f   menu.obj
 0001:000159e8       __ehhandler$?add_menu_entry@menu@@YAHHV?$basic_string@DU?$char_traits@D@std@@V?$allocator@D@2@@std@@PAHHHH@Z 100169e8 f   menu.obj
 0001:000159e8       __ehhandler$?add_menu_entry@menu@@YAHHV?$basic_string@DU?$char_traits@D@std@@V?$allocator@D@2@@std@@PAMMMM@Z 100169e8 f   menu.obj
 0001:000159e8       __ehhandler$?add_menu_entry@menu@@YAHHV?$basic_string@DU?$char_traits@D@std@@V?$allocator@D@2@@std@@PA_N@Z 100169e8 f   menu.obj
 0001:000159e8       __ehhandler$?add_menu_entry_int_string@menu@@YAHHV?$basic_string@DU?$char_traits@D@std@@V?$allocator@D@2@@std@@PAHHHH@Z 100169e8 f   menu.obj
 0001:00015a10       __unwindfunclet$?draw_menu@menu@@YAXK@Z$0 10016a10 f   menu.obj
 0001:00015a1b       __ehhandler$?draw_menu@menu@@YAXK@Z 10016a1b f   menu.obj
 0001:00015a40       __unwindfunclet$??$get_method@Vaddress@@@u@@YA?AVaddress@@V1@I@Z$0 10016a40 f   setup.obj
 0001:00015a48       __ehhandler$??$get_method@Vaddress@@@u@@YA?AVaddress@@V1@I@Z 10016a48 f   setup.obj
 0001:00015a70       __unwindfunclet$??$make_unique@Vvmt_hook@@$$V$0A@@std@@YA?AV?$unique_ptr@Vvmt_hook@@U?$default_delete@Vvmt_hook@@@std@@@0@XZ$0 10016a70 f   setup.obj
 0001:00015a7f       __ehhandler$??$make_unique@Vvmt_hook@@$$V$0A@@std@@YA?AV?$unique_ptr@Vvmt_hook@@U?$default_delete@Vvmt_hook@@@std@@@0@XZ 10016a7f f   setup.obj
 0001:00015aa0       __unwindfunclet$?hk_create_move@@YGXHM_NAA_N@Z$0 10016aa0 f   setup.obj
 0001:00015aac       __ehhandler$?hk_create_move@@YGXHM_NAA_N@Z 10016aac f   setup.obj
 0001:00015ad0       __unwindfunclet$?hk_do_post_screen_effects@@YI_NPAViclientmodeshared@@PAXPAVview_setup@@@Z$0 10016ad0 f   setup.obj
 0001:00015adc       __ehhandler$?hk_do_post_screen_effects@@YI_NPAViclientmodeshared@@PAXPAVview_setup@@@Z 10016adc f   setup.obj
 0001:00015b00       __unwindfunclet$?hk_draw_model_execute@@YIXPAVimodelrender@@PAXPAVimatrendercontext@@ABUdraw_model_state@@ABUmodel_render_info_t@@PAY123M@Z$0 10016b00 f   setup.obj
 0001:00015b0c       __ehhandler$?hk_draw_model_execute@@YIXPAVimodelrender@@PAXPAVimatrendercontext@@ABUdraw_model_state@@ABUmodel_render_info_t@@PAY123M@Z 10016b0c f   setup.obj
 0001:00015b30       __unwindfunclet$?hk_frame_stage_notify@@YIXPAVchlclient@@PAXW4client_frame_stage_t@@@Z$0 10016b30 f   setup.obj
 0001:00015b3c       __ehhandler$?hk_frame_stage_notify@@YIXPAVchlclient@@PAXW4client_frame_stage_t@@@Z 10016b3c f   setup.obj
 0001:00015b60       __unwindfunclet$?hk_get_viewmodel_fov@@YIMPAViclientmodeshared@@PAX@Z$0 10016b60 f   setup.obj
 0001:00015b6c       __ehhandler$?hk_get_viewmodel_fov@@YIMPAViclientmodeshared@@PAX@Z 10016b6c f   setup.obj
 0001:00015b90       __unwindfunclet$?hk_key_event@@YIHPAVchlclient@@PAXHHPBD@Z$0 10016b90 f   setup.obj
 0001:00015b9c       __ehhandler$?hk_key_event@@YIHPAVchlclient@@PAXHHPBD@Z 10016b9c f   setup.obj
 0001:00015bc0       __unwindfunclet$?hk_override_view@@YIXPAViclientmodeshared@@PAXPAVview_setup@@@Z$0 10016bc0 f   setup.obj
 0001:00015bcc       __ehhandler$?hk_override_view@@YIXPAViclientmodeshared@@PAXPAVview_setup@@@Z 10016bcc f   setup.obj
 0001:00015bf0       __unwindfunclet$?hk_paint_traverse@@YIXPAVipanel@@PAXI_N2@Z$0 10016bf0 f   setup.obj
 0001:00015bfc       __ehhandler$?hk_paint_traverse@@YIXPAVipanel@@PAXI_N2@Z 10016bfc f   setup.obj
 0001:00015c20       __unwindfunclet$?safe@address@@SA_NV1@@Z$0 10016c20 f   setup.obj
 0001:00015c28       __ehhandler$?safe@address@@SA_NV1@@Z 10016c28 f   setup.obj
 0001:00015c50       __unwindfunclet$?setup@vmt_hook@@QAE_NPAXPBD@Z$4 10016c50 f   setup.obj
 0001:00015c58       __ehhandler$?setup@vmt_hook@@QAE_NPAXPBD@Z 10016c58 f   setup.obj
 0001:00015c80       __unwindfunclet$?setup_interfaces@s@@YAXXZ$1 10016c80 f   setup.obj
 0001:00015c88       __unwindfunclet$?setup_interfaces@s@@YAXXZ$2 10016c88 f   setup.obj
 0001:00015c90       __unwindfunclet$?setup_interfaces@s@@YAXXZ$3 10016c90 f   setup.obj
 0001:00015c98       __ehhandler$?setup_interfaces@s@@YAXXZ 10016c98 f   setup.obj
 0001:00015cc0       ??__Fplayer_data@@YAXXZ    10016cc0 f   resolver.obj
 0001:00015cd0       ??__Fclient_hook@h@@YAXXZ  10016cd0 f   hooks.obj
 0001:00015ce0       ??__Fclient_mode_hook@h@@YAXXZ 10016ce0 f   hooks.obj
 0001:00015cf0       ??__Fdata_hook@h@@YAXXZ    10016cf0 f   hooks.obj
 0001:00015d00       ??__Fmodel_hook@h@@YAXXZ   10016d00 f   hooks.obj
 0001:00015d10       ??__Fpanel_hook@h@@YAXXZ   10016d10 f   hooks.obj
 0001:00015d20       ??__Fitems@@YAXXZ          10016d20 f   menu.obj
 0001:00015d38       ??__F_Fac_tidy_reg@std@@YAXXZ 10016d38 f   msvcprt:locale0_implib.obj
 0002:00000218       ?_Fac_tidy_reg$initializer$@std@@3P6AXXZA 10017218     msvcprt:locale0_implib.obj
 0002:0000021c       ?player_data$initializer$@@3P6AXXZA 1001721c     resolver.obj
 0002:00000220       ?last_real_tick$initializer$@g@@3P6AXXZA 10017220     global.obj
 0002:00000224       ?last_fake_tick$initializer$@g@@3P6AXXZA 10017224     global.obj
 0002:00000228       ?client_mode_hook$initializer$@h@@3P6AXXZA 10017228     hooks.obj
 0002:0000022c       ?client_hook$initializer$@h@@3P6AXXZA 1001722c     hooks.obj
 0002:00000230       ?panel_hook$initializer$@h@@3P6AXXZA 10017230     hooks.obj
 0002:00000234       ?model_hook$initializer$@h@@3P6AXXZA 10017234     hooks.obj
 0002:00000238       ?data_hook$initializer$@h@@3P6AXXZA 10017238     hooks.obj
 0002:0000023c       ?items$initializer$@@3P6AXXZA 1001723c     menu.obj
 0002:00000248       ?__scrt_initialize_tss_var@@3P6AHXZA 10017248     MSVCRT:thread_safe_statics.obj
 0002:000003ec       $SG135835                  100173ec     misc.obj
 0002:00000408       $SG135836                  10017408     misc.obj
 0002:00000414       $SG135854                  10017414     misc.obj
 0002:00000420       $SG135870                  10017420     misc.obj
 0002:00000430       $SG135905                  10017430     misc.obj
 0002:0000043c       $SG135906                  1001743c     misc.obj
 0002:00000458       $SG135937                  10017458     misc.obj
 0002:0000046c       $SG135938                  1001746c     misc.obj
 0002:00000480       $SG135939                  10017480     misc.obj
 0002:000004d4       $SG136006                  100174d4     visuals.obj
 0002:000004dc       $SG136007                  100174dc     visuals.obj
 0002:000004e4       $SG136011                  100174e4     visuals.obj
 0002:000004f0       $SG136012                  100174f0     visuals.obj
 0002:000004f8       $SG136015                  100174f8     visuals.obj
 0002:00000508       $SG136016                  10017508     visuals.obj
 0002:00000510       $SG136019                  10017510     visuals.obj
 0002:00000524       $SG136020                  10017524     visuals.obj
 0002:00000530       $SG136023                  10017530     visuals.obj
 0002:00000538       $SG136024                  10017538     visuals.obj
 0002:00000540       $SG136027                  10017540     visuals.obj
 0002:0000054c       $SG136028                  1001754c     visuals.obj
 0002:00000554       $SG136031                  10017554     visuals.obj
 0002:0000055c       $SG136032                  1001755c     visuals.obj
 0002:00000564       $SG136135                  10017564     visuals.obj
 0002:0000056c       $SG136138                  1001756c     visuals.obj
 0002:00000578       $SG136139                  10017578     visuals.obj
 0002:00000580       $SG136141                  10017580     visuals.obj
 0002:00000588       $SG136144                  10017588     visuals.obj
 0002:00000590       $SG136145                  10017590     visuals.obj
 0002:00000598       $SG136151                  10017598     visuals.obj
 0002:000005ac       $SG136152                  100175ac     visuals.obj
 0002:000005b8       $SG136154                  100175b8     visuals.obj
 0002:000005c0       $SG136156                  100175c0     visuals.obj
 0002:000005c4       $SG136159                  100175c4     visuals.obj
 0002:000005cc       $SG136161                  100175cc     visuals.obj
 0002:000005d0       $SG136164                  100175d0     visuals.obj
 0002:000005d8       $SG136166                  100175d8     visuals.obj
 0002:000005e0       $SG136168                  100175e0     visuals.obj
 0002:000005ec       $SG136172                  100175ec     visuals.obj
 0002:000005f4       $SG136231                  100175f4     visuals.obj
 0002:00000600       $SG136232                  10017600     visuals.obj
 0002:0000060c       $SG136239                  1001760c     visuals.obj
 0002:00000624       $SG136240                  10017624     visuals.obj
 0002:00000638       $SG136241                  10017638     visuals.obj
 0002:0000064c       $SG136242                  1001764c     visuals.obj
 0002:00000660       $SG136623                  10017660     visuals.obj
 0002:00000664       $SG136624                  10017664     visuals.obj
 0002:00000670       $SG136625                  10017670     visuals.obj
 0002:00000680       $SG136626                  10017680     visuals.obj
 0002:00000684       $SG136627                  10017684     visuals.obj
 0002:00000690       $SG136773                  10017690     visuals.obj
 0002:00000694       $SG136774                  10017694     visuals.obj
 0002:00000698       $SG136775                  10017698     visuals.obj
 0002:0000069c       $SG136776                  1001769c     visuals.obj
 0002:000006a0       $SG136777                  100176a0     visuals.obj
 0002:000006a8       $SG136778                  100176a8     visuals.obj
 0002:000006c0       $SG136779                  100176c0     visuals.obj
 0002:000006d8       $SG136780                  100176d8     visuals.obj
 0002:000006e4       $SG136781                  100176e4     visuals.obj
 0002:000006f4       $SG136782                  100176f4     visuals.obj
 0002:00000704       $SG136783                  10017704     visuals.obj
 0002:00000710       $SG136784                  10017710     visuals.obj
 0002:0000071c       $SG136787                  1001771c     visuals.obj
 0002:00000720       $SG136788                  10017720     visuals.obj
 0002:00000728       $SG136791                  10017728     visuals.obj
 0002:00000734       $SG136794                  10017734     visuals.obj
 0002:0000073c       $SG136797                  1001773c     visuals.obj
 0002:00000744       $SG136800                  10017744     visuals.obj
 0002:0000074c       $SG136801                  1001774c     visuals.obj
 0002:00000754       $SG136802                  10017754     visuals.obj
 0002:0000075c       $SG136805                  1001775c     visuals.obj
 0002:00000764       $SG136808                  10017764     visuals.obj
 0002:0000076c       $SG136809                  1001776c     visuals.obj
 0002:00000774       $SG136810                  10017774     visuals.obj
 0002:0000077c       $SG136813                  1001777c     visuals.obj
 0002:00000788       $SG136816                  10017788     visuals.obj
 0002:00000794       $SG136817                  10017794     visuals.obj
 0002:0000079c       $SG136818                  1001779c     visuals.obj
 0002:000007a8       $SG136821                  100177a8     visuals.obj
 0002:000007b0       $SG136824                  100177b0     visuals.obj
 0002:000007b8       $SG136825                  100177b8     visuals.obj
 0002:000007c0       $SG136826                  100177c0     visuals.obj
 0002:000007c8       $SG136829                  100177c8     visuals.obj
 0002:000007d8       $SG136830                  100177d8     visuals.obj
 0002:000007e0       $SG136831                  100177e0     visuals.obj
 0002:000007ec       $SG136836                  100177ec     visuals.obj
 0002:000007f4       $SG136838                  100177f4     visuals.obj
 0002:000007fc       $SG136840                  100177fc     visuals.obj
 0002:00000804       $SG136844                  10017804     visuals.obj
 0002:0000080c       $SG136846                  1001780c     visuals.obj
 0002:00000814       $SG136847                  10017814     visuals.obj
 0002:0000081c       $SG136850                  1001781c     visuals.obj
 0002:00000820       $SG136851                  10017820     visuals.obj
 0002:00000828       $SG136852                  10017828     visuals.obj
 0002:00000838       $SG136853                  10017838     visuals.obj
 0002:00000840       $SG136854                  10017840     visuals.obj
 0002:00000848       $SG136855                  10017848     visuals.obj
 0002:00000850       $SG136856                  10017850     visuals.obj
 0002:0000085c       $SG136859                  1001785c     visuals.obj
 0002:00000860       $SG136860                  10017860     visuals.obj
 0002:00000868       $SG136861                  10017868     visuals.obj
 0002:00000870       $SG136864                  10017870     visuals.obj
 0002:00000878       $SG136867                  10017878     visuals.obj
 0002:00000880       $SG136868                  10017880     visuals.obj
 0002:00000888       $SG136869                  10017888     visuals.obj
 0002:00000890       $SG136870                  10017890     visuals.obj
 0002:00000898       $SG136886                  10017898     visuals.obj
 0002:0000089c       $SG136950                  1001789c     visuals.obj
 0002:000008a4       $SG136952                  100178a4     visuals.obj
 0002:000008ac       $SG136955                  100178ac     visuals.obj
 0002:00000970       $SG135827                  10017970     hooks.obj
 0002:0000097c       $SG135828                  1001797c     hooks.obj
 0002:00000988       $SG135842                  10017988     hooks.obj
 0002:00000994       $SG135843                  10017994     hooks.obj
 0002:0000099c       $SG135847                  1001799c     hooks.obj
 0002:000009a8       $SG135848                  100179a8     hooks.obj
 0002:000009b4       $SG135851                  100179b4     hooks.obj
 0002:00000a40       $SG135922                  10017a40     menu.obj
 0002:00000a44       $SG135923                  10017a44     menu.obj
 0002:00000a4c       $SG135924                  10017a4c     menu.obj
 0002:00000a54       $SG135926                  10017a54     menu.obj
 0002:00000a5c       $SG135927                  10017a5c     menu.obj
 0002:00000a64       $SG135928                  10017a64     menu.obj
 0002:00000a6c       $SG135930                  10017a6c     menu.obj
 0002:00000a70       $SG135931                  10017a70     menu.obj
 0002:00000a78       $SG135932                  10017a78     menu.obj
 0002:00000a7c       $SG135933                  10017a7c     menu.obj
 0002:00000a84       $SG135935                  10017a84     menu.obj
 0002:00000a88       $SG135936                  10017a88     menu.obj
 0002:00000a90       $SG135937                  10017a90     menu.obj
 0002:00000a94       $SG135938                  10017a94     menu.obj
 0002:00000a9c       $SG135940                  10017a9c     menu.obj
 0002:00000aa0       $SG135941                  10017aa0     menu.obj
 0002:00000aac       $SG135942                  10017aac     menu.obj
 0002:00000ab4       $SG135943                  10017ab4     menu.obj
 0002:00000ab8       $SG135945                  10017ab8     menu.obj
 0002:00000abc       $SG135946                  10017abc     menu.obj
 0002:00000ac4       $SG135947                  10017ac4     menu.obj
 0002:00000ac8       $SG135948                  10017ac8     menu.obj
 0002:00000ad0       $SG135949                  10017ad0     menu.obj
 0002:00000ad8       $SG135951                  10017ad8     menu.obj
 0002:00000adc       $SG135952                  10017adc     menu.obj
 0002:00000ae4       $SG135953                  10017ae4     menu.obj
 0002:00000aec       $SG136086                  10017aec     menu.obj
 0002:00000af8       $SG136088                  10017af8     menu.obj
 0002:00000b04       $SG136089                  10017b04     menu.obj
 0002:00000b10       $SG136090                  10017b10     menu.obj
 0002:00000b1c       $SG136091                  10017b1c     menu.obj
 0002:00000b24       $SG136092                  10017b24     menu.obj
 0002:00000b30       $SG136093                  10017b30     menu.obj
 0002:00000b44       $SG136094                  10017b44     menu.obj
 0002:00000b50       $SG136095                  10017b50     menu.obj
 0002:00000b5c       $SG136096                  10017b5c     menu.obj
 0002:00000b68       $SG136097                  10017b68     menu.obj
 0002:00000b74       $SG136098                  10017b74     menu.obj
 0002:00000b80       $SG136099                  10017b80     menu.obj
 0002:00000b90       $SG136100                  10017b90     menu.obj
 0002:00000ba4       $SG136101                  10017ba4     menu.obj
 0002:00000bb8       $SG136103                  10017bb8     menu.obj
 0002:00000bc4       $SG136105                  10017bc4     menu.obj
 0002:00000bd0       $SG136106                  10017bd0     menu.obj
 0002:00000bd8       $SG136107                  10017bd8     menu.obj
 0002:00000be0       $SG136108                  10017be0     menu.obj
 0002:00000bf0       $SG136109                  10017bf0     menu.obj
 0002:00000bf8       $SG136111                  10017bf8     menu.obj
 0002:00000c00       $SG136112                  10017c00     menu.obj
 0002:00000c08       $SG136114                  10017c08     menu.obj
 0002:00000c18       $SG136115                  10017c18     menu.obj
 0002:00000c24       $SG136116                  10017c24     menu.obj
 0002:00000c34       $SG136117                  10017c34     menu.obj
 0002:00000c3c       $SG136118                  10017c3c     menu.obj
 0002:00000c44       $SG136119                  10017c44     menu.obj
 0002:00000c4c       $SG136120                  10017c4c     menu.obj
 0002:00000c58       $SG136121                  10017c58     menu.obj
 0002:00000c60       $SG136122                  10017c60     menu.obj
 0002:00000c68       $SG136123                  10017c68     menu.obj
 0002:00000c74       $SG136124                  10017c74     menu.obj
 0002:00000c84       $SG136126                  10017c84     menu.obj
 0002:00000c94       $SG136128                  10017c94     menu.obj
 0002:00000ca4       $SG136129                  10017ca4     menu.obj
 0002:00000cb0       $SG136130                  10017cb0     menu.obj
 0002:00000cc4       $SG136131                  10017cc4     menu.obj
 0002:00000cd8       $SG136132                  10017cd8     menu.obj
 0002:00000ce8       $SG136133                  10017ce8     menu.obj
 0002:00000cfc       $SG136134                  10017cfc     menu.obj
 0002:00000d10       $SG136135                  10017d10     menu.obj
 0002:00000d1c       $SG136136                  10017d1c     menu.obj
 0002:00000d2c       $SG136137                  10017d2c     menu.obj
 0002:00000d3c       $SG136138                  10017d3c     menu.obj
 0002:00000d48       $SG136139                  10017d48     menu.obj
 0002:00000d54       $SG136141                  10017d54     menu.obj
 0002:00000d64       $SG136143                  10017d64     menu.obj
 0002:00000d74       $SG136144                  10017d74     menu.obj
 0002:00000d84       $SG136145                  10017d84     menu.obj
 0002:00000d9c       $SG136146                  10017d9c     menu.obj
 0002:00000db4       $SG136147                  10017db4     menu.obj
 0002:00000dcc       $SG136149                  10017dcc     menu.obj
 0002:00000dd8       $SG136151                  10017dd8     menu.obj
 0002:00000de4       $SG136153                  10017de4     menu.obj
 0002:00000e04       $SG136155                  10017e04     menu.obj
 0002:00000e24       $SG136156                  10017e24     menu.obj
 0002:00000e28       $SG136157                  10017e28     menu.obj
 0002:00000e2c       $SG136158                  10017e2c     menu.obj
 0002:00000e30       $SG136160                  10017e30     menu.obj
 0002:00000e48       $SG136162                  10017e48     menu.obj
 0002:00000e60       $SG136163                  10017e60     menu.obj
 0002:00000e64       $SG136164                  10017e64     menu.obj
 0002:00000e68       $SG136165                  10017e68     menu.obj
 0002:00000e6c       $SG136167                  10017e6c     menu.obj
 0002:00000e80       $SG136169                  10017e80     menu.obj
 0002:00000e94       $SG136170                  10017e94     menu.obj
 0002:00000e98       $SG136171                  10017e98     menu.obj
 0002:00000e9c       $SG136172                  10017e9c     menu.obj
 0002:00000ea0       $SG136174                  10017ea0     menu.obj
 0002:00000eb4       $SG136176                  10017eb4     menu.obj
 0002:00000ec8       $SG136177                  10017ec8     menu.obj
 0002:00000ecc       $SG136178                  10017ecc     menu.obj
 0002:00000ed0       $SG136179                  10017ed0     menu.obj
 0002:00000ed4       $SG136181                  10017ed4     menu.obj
 0002:00000ee0       $SG136183                  10017ee0     menu.obj
 0002:00000eec       $SG136184                  10017eec     menu.obj
 0002:00000ef8       $SG136185                  10017ef8     menu.obj
 0002:00000f04       $SG136186                  10017f04     menu.obj
 0002:00000f1c       $SG136187                  10017f1c     menu.obj
 0002:00000f2c       $SG136188                  10017f2c     menu.obj
 0002:00000f38       $SG136190                  10017f38     menu.obj
 0002:00000f48       $SG136191                  10017f48     menu.obj
 0002:00000f50       $SG136193                  10017f50     menu.obj
 0002:00000f5c       $SG136195                  10017f5c     menu.obj
 0002:00000f68       $SG136196                  10017f68     menu.obj
 0002:00000f74       $SG136197                  10017f74     menu.obj
 0002:00000f84       $SG136198                  10017f84     menu.obj
 0002:00000f98       $SG136200                  10017f98     menu.obj
 0002:00000fa4       $SG136202                  10017fa4     menu.obj
 0002:00000fb0       $SG136203                  10017fb0     menu.obj
 0002:00000fc0       $SG136204                  10017fc0     menu.obj
 0002:00000fcc       $SG136397                  10017fcc     menu.obj
 0002:00000fd8       $SG136398                  10017fd8     menu.obj
 0002:00000fdc       $SG136402                  10017fdc     menu.obj
 0002:00000fe0       $SG136403                  10017fe0     menu.obj
 0002:00000fe4       $SG136405                  10017fe4     menu.obj
 0002:00000fe8       $SG136406                  10017fe8     menu.obj
 0002:00000fec       $SG136407                  10017fec     menu.obj
 0002:00000ff0       $SG136409                  10017ff0     menu.obj
 0002:00000ff4       $SG136411                  10017ff4     menu.obj
 0002:00000ffc       $SG136415                  10017ffc     menu.obj
 0002:00001004       $SG136416                  10018004     menu.obj
 0002:00001008       $SG136418                  10018008     menu.obj
 0002:00001014       $SG136419                  10018014     menu.obj
 0002:00001018       $SG136421                  10018018     menu.obj
 0002:00001020       $SG136422                  10018020     menu.obj
 0002:00001024       $SG136424                  10018024     menu.obj
 0002:00001030       $SG136425                  10018030     menu.obj
 0002:00001034       $SG136427                  10018034     menu.obj
 0002:0000103c       $SG136428                  1001803c     menu.obj
 0002:00001040       $SG136430                  10018040     menu.obj
 0002:00001054       $SG136431                  10018054     menu.obj
 0002:00001058       $SG136433                  10018058     menu.obj
 0002:00001060       $SG136434                  10018060     menu.obj
 0002:00001078       $SG135853                  10018078     c_baseentity.obj
 0002:0000109c       $SG135854                  1001809c     c_baseentity.obj
 0002:000010b0       ?pulCRCTable@@3QBKB        100180b0     checksum_crc.obj
 0002:000014b0       $SG136004                  100184b0     setup.obj
 0002:000014bc       $SG136115                  100184bc     setup.obj
 0002:000014c4       $SG136117                  100184c4     setup.obj
 0002:000014cc       $SG136118                  100184cc     setup.obj
 0002:000014d4       $SG136119                  100184d4     setup.obj
 0002:000014dc       $SG136120                  100184dc     setup.obj
 0002:000014e4       $SG136121                  100184e4     setup.obj
 0002:000014ec       $SG136122                  100184ec     setup.obj
 0002:000014f4       $SG136123                  100184f4     setup.obj
 0002:000014fc       $SG137014                  100184fc     setup.obj
 0002:0000150c       $SG137015                  1001850c     setup.obj
 0002:00001520       $SG137016                  10018520     setup.obj
 0002:00001530       $SG137017                  10018530     setup.obj
 0002:00001540       $SG137018                  10018540     setup.obj
 0002:00001550       $SG137019                  10018550     setup.obj
 0002:0000155c       $SG137020                  1001855c     setup.obj
 0002:0000156c       $SG137021                  1001856c     setup.obj
 0002:00001578       $SG137022                  10018578     setup.obj
 0002:00001588       $SG137023                  10018588     setup.obj
 0002:0000159c       $SG137024                  1001859c     setup.obj
 0002:000015ac       $SG137025                  100185ac     setup.obj
 0002:000015bc       $SG137026                  100185bc     setup.obj
 0002:000015cc       $SG137027                  100185cc     setup.obj
 0002:000015d8       $SG137028                  100185d8     setup.obj
 0002:000015e8       $SG137029                  100185e8     setup.obj
 0002:000015f8       $SG137030                  100185f8     setup.obj
 0002:00001604       $SG137031                  10018604     setup.obj
 0002:0000161c       $SG137032                  1001861c     setup.obj
 0002:00001638       $SG137033                  10018638     setup.obj
 0002:0000164c       $SG137034                  1001864c     setup.obj
 0002:00001670       $SG137035                  10018670     setup.obj
 0002:00001684       $SG137036                  10018684     setup.obj
 0002:00001690       $SG137037                  10018690     setup.obj
 0002:000016a4       $SG137038                  100186a4     setup.obj
 0002:000016b8       $SG137039                  100186b8     setup.obj
 0002:000016d0       $SG137040                  100186d0     setup.obj
 0002:000016e0       $SG137041                  100186e0     setup.obj
 0002:000016f4       $SG137042                  100186f4     setup.obj
 0002:0000170c       $SG137043                  1001870c     setup.obj
 0002:00001724       $SG137044                  10018724     setup.obj
 0002:0000173c       $SG137045                  1001873c     setup.obj
 0002:0000174c       $SG137046                  1001874c     setup.obj
 0002:00001764       $SG137047                  10018764     setup.obj
 0002:00001778       $SG137048                  10018778     setup.obj
 0002:00001788       $SG137049                  10018788     setup.obj
 0002:00001854       _GS_ExceptionPointers      10018854     MSVCRT:gs_report.obj
 0002:000023c8       __unwindtable$?is_reloading@base_weapon@@QAE_NXZ 100193c8     aimbot.obj
 0002:000023d0       __ehfuncinfo$?is_reloading@base_weapon@@QAE_NXZ 100193d0     aimbot.obj
 0002:000023f4       __unwindtable$?get_hitboxes@a@@YAHPAVc_baseentity@@@Z 100193f4     aimbot.obj
 0002:000023fc       __ehfuncinfo$?get_hitboxes@a@@YAHPAVc_baseentity@@@Z 100193fc     aimbot.obj
 0002:00002420       __ehfuncinfo$??$_Deallocate@$07$0A@@std@@YAXPAXI@Z 10019420     aimbot.obj
 0002:00002420       __ehfuncinfo$??0?$vector@HV?$allocator@H@std@@@std@@QAE@XZ 10019420     aimbot.obj
 0002:00002420       __ehfuncinfo$?_Tidy@?$vector@HV?$allocator@H@std@@@std@@AAEXXZ 10019420     aimbot.obj
 0002:00002420       __ehfuncinfo$??$?0U?$default_delete@Vvmt_hook@@@std@@$0A@@?$unique_ptr@Vvmt_hook@@U?$default_delete@Vvmt_hook@@@std@@@std@@QAE@XZ 10019420     hooks.obj
 0002:00002420       __ehfuncinfo$??1vmt_hook@@QAE@XZ 10019420     hooks.obj
 0002:00002420       __ehfuncinfo$?_Tidy_deallocate@?$basic_string@DU?$char_traits@D@std@@V?$allocator@D@2@@std@@AAEXXZ 10019420     misc.obj
 0002:00002420       __ehfuncinfo$?c_str@?$basic_string@DU?$char_traits@D@std@@V?$allocator@D@2@@std@@QBEPBDXZ 10019420     misc.obj
 0002:00002420       __ehfuncinfo$?clear@?$basic_string@DU?$char_traits@D@std@@V?$allocator@D@2@@std@@QAEXXZ 10019420     misc.obj
 0002:00002420       __ehfuncinfo$??0?$vector@U?$pair@PAVc_baseentity@@Vvector@@@std@@V?$allocator@U?$pair@PAVc_baseentity@@Vvector@@@std@@@2@@std@@QAE@XZ 10019420     resolver.obj
 0002:00002420       __ehfuncinfo$?_Tidy@?$vector@U?$pair@PAVc_baseentity@@Vvector@@@std@@V?$allocator@U?$pair@PAVc_baseentity@@Vvector@@@std@@@2@@std@@AAEXXZ 10019420     resolver.obj
 0002:00002420       __ehfuncinfo$??$?0U?$default_delete@Vvmt_hook@@@std@@$0A@@?$unique_ptr@Vvmt_hook@@U?$default_delete@Vvmt_hook@@@std@@@std@@QAE@PAVvmt_hook@@@Z 10019420     setup.obj
 0002:00002420       __ehfuncinfo$?clear@?$vector@U?$pair@PAVc_baseentity@@Vvector@@@std@@V?$allocator@U?$pair@PAVc_baseentity@@Vvector@@@std@@@2@@std@@QAEXXZ 10019420     setup.obj
 0002:00002420       __ehfuncinfo$?release@?$unique_ptr@Vvmt_hook@@U?$default_delete@Vvmt_hook@@@std@@@std@@QAEPAVvmt_hook@@XZ 10019420     setup.obj
 0002:00002420       __ehfuncinfo$?reset@?$unique_ptr@Vvmt_hook@@U?$default_delete@Vvmt_hook@@@std@@@std@@QAEXPAVvmt_hook@@@Z 10019420     setup.obj
 0002:00002420       __ehfuncinfo$??$?0U?$default_delete@V_Facet_base@std@@@std@@$0A@@?$unique_ptr@V_Facet_base@std@@U?$default_delete@V_Facet_base@std@@@2@@std@@QAE@PAV_Facet_base@1@@Z 10019420     visuals.obj
 0002:00002420       __ehfuncinfo$??0?$basic_string@DU?$char_traits@D@std@@V?$allocator@D@2@@std@@QAE@$$QAV01@@Z 10019420     visuals.obj
 0002:00002420       __ehfuncinfo$??0?$basic_string@DU?$char_traits@D@std@@V?$allocator@D@2@@std@@QAE@ABV?$allocator@D@1@@Z 10019420     visuals.obj
 0002:00002420       __ehfuncinfo$??0?$basic_string@DU?$char_traits@D@std@@V?$allocator@D@2@@std@@QAE@XZ 10019420     visuals.obj
 0002:00002420       __ehfuncinfo$??1_Sentry_base@?$basic_ostream@DU?$char_traits@D@std@@@std@@QAE@XZ 10019420     visuals.obj
 0002:00002420       __ehfuncinfo$??1sentry@?$basic_ostream@DU?$char_traits@D@std@@@std@@QAE@XZ 10019420     visuals.obj
 0002:00002420       __ehfuncinfo$?_Tidy@?$basic_stringbuf@DU?$char_traits@D@std@@V?$allocator@D@2@@std@@IAEXXZ 10019420     visuals.obj
 0002:00002420       __ehfuncinfo$?data@?$basic_string@DU?$char_traits@D@std@@V?$allocator@D@2@@std@@QBEPBDXZ 10019420     visuals.obj
 0002:00002420       __ehfuncinfo$?find@?$basic_string@DU?$char_traits@D@std@@V?$allocator@D@2@@std@@QBEIQBDI@Z 10019420     visuals.obj
 0002:00002420       __ehfuncinfo$?release@?$unique_ptr@V_Facet_base@std@@U?$default_delete@V_Facet_base@std@@@2@@std@@QAEPAV_Facet_base@2@XZ 10019420     visuals.obj
 0002:00002444       __catchsym$??$_Emplace_reallocate@H@?$vector@HV?$allocator@H@std@@@std@@QAEPAHQAH$$QAH@Z$2 10019444     aimbot.obj
 0002:00002454       __unwindtable$??$_Emplace_reallocate@H@?$vector@HV?$allocator@H@std@@@std@@QAEPAHQAH$$QAH@Z 10019454     aimbot.obj
 0002:00002464       __tryblocktable$??$_Emplace_reallocate@H@?$vector@HV?$allocator@H@std@@@std@@QAEPAHQAH$$QAH@Z 10019464     aimbot.obj
 0002:00002478       __ehfuncinfo$??$_Emplace_reallocate@H@?$vector@HV?$allocator@H@std@@@std@@QAEPAHQAH$$QAH@Z 10019478     aimbot.obj
 0002:00002510       __unwindtable$??0?$basic_string@DU?$char_traits@D@std@@V?$allocator@D@2@@std@@QAE@ABV01@IIABV?$allocator@D@1@@Z 10019510     misc.obj
 0002:00002510       __unwindtable$??0?$basic_string@DU?$char_traits@D@std@@V?$allocator@D@2@@std@@QAE@QBD@Z 10019510     misc.obj
 0002:00002510       __unwindtable$??$?0PADX@?$basic_string@DU?$char_traits@D@std@@V?$allocator@D@2@@std@@QAE@PAD0ABV?$allocator@D@1@@Z 10019510     visuals.obj
 0002:00002518       __ehfuncinfo$??0?$basic_string@DU?$char_traits@D@std@@V?$allocator@D@2@@std@@QAE@ABV01@IIABV?$allocator@D@1@@Z 10019518     misc.obj
 0002:00002518       __ehfuncinfo$??0?$basic_string@DU?$char_traits@D@std@@V?$allocator@D@2@@std@@QAE@QBD@Z 10019518     misc.obj
 0002:00002518       __ehfuncinfo$??$?0PADX@?$basic_string@DU?$char_traits@D@std@@V?$allocator@D@2@@std@@QAE@PAD0ABV?$allocator@D@1@@Z 10019518     visuals.obj
 0002:0000253c       __unwindtable$?clan_tag@m@@YAXXZ 1001953c     misc.obj
 0002:0000253c       __unwindtable$?clan_tag_og@m@@YAXXZ 1001953c     misc.obj
 0002:0000254c       __ehfuncinfo$?clan_tag@m@@YAXXZ 1001954c     misc.obj
 0002:0000254c       __ehfuncinfo$?clan_tag_og@m@@YAXXZ 1001954c     misc.obj
 0002:00002570       __unwindtable$?crosshair@m@@YAXXZ 10019570     misc.obj
 0002:00002580       __ehfuncinfo$?crosshair@m@@YAXXZ 10019580     misc.obj
 0002:000025a4       __unwindtable$?viewmodel@m@@YAXXZ 100195a4     misc.obj
 0002:000025bc       __ehfuncinfo$?viewmodel@m@@YAXXZ 100195bc     misc.obj
 0002:000025e0       __unwindtable$?set_clan_tag@m@@YAXPBD@Z 100195e0     misc.obj
 0002:000025e8       __ehfuncinfo$?set_clan_tag@m@@YAXPBD@Z 100195e8     misc.obj
 0002:0000260c       __unwindtable$?projectiles@v@@YAXPAVc_baseentity@@Vcolor@@K@Z 1001960c     visuals.obj
 0002:0000261c       __ehfuncinfo$?projectiles@v@@YAXPAVc_baseentity@@Vcolor@@K@Z 1001961c     visuals.obj
 0002:00002640       __unwindtable$?players@v@@YAXMMMMUplayer_info_s@@PAVc_baseentity@@Vcolor@@KVvector@@33@Z 10019640     visuals.obj
 0002:00002648       __ehfuncinfo$?players@v@@YAXMMMMUplayer_info_s@@PAVc_baseentity@@Vcolor@@KVvector@@33@Z 10019648     visuals.obj
 0002:0000266c       __unwindtable$?arrows@v@@YAXXZ 1001966c     visuals.obj
 0002:00002684       __ehfuncinfo$?arrows@v@@YAXXZ 10019684     visuals.obj
 0002:000026a8       __ehfuncinfo$?user@v@@YAXXZ 100196a8     visuals.obj
 0002:000026cc       __unwindtable$?user@v@@YAXXZ 100196cc     visuals.obj
 0002:00002704       __ehfuncinfo$?watermark@v@@YAXXZ 10019704     visuals.obj
 0002:00002728       __unwindtable$?watermark@v@@YAXXZ 10019728     visuals.obj
 0002:00002760       __unwindtable$??0?$basic_stringstream@DU?$char_traits@D@std@@V?$allocator@D@2@@std@@QAE@H@Z 10019760     visuals.obj
 0002:00002770       __ehfuncinfo$??0?$basic_stringstream@DU?$char_traits@D@std@@V?$allocator@D@2@@std@@QAE@H@Z 10019770     visuals.obj
 0002:00002794       __unwindtable$??0?$basic_stringbuf@DU?$char_traits@D@std@@V?$allocator@D@2@@std@@QAE@H@Z 10019794     visuals.obj
 0002:0000279c       __ehfuncinfo$??0?$basic_stringbuf@DU?$char_traits@D@std@@V?$allocator@D@2@@std@@QAE@H@Z 1001979c     visuals.obj
 0002:000027c0       __unwindtable$?str@?$basic_stringbuf@DU?$char_traits@D@std@@V?$allocator@D@2@@std@@QBE?AV?$basic_string@DU?$char_traits@D@std@@V?$allocator@D@2@@2@XZ 100197c0     visuals.obj
 0002:000027c8       __ehfuncinfo$?str@?$basic_stringbuf@DU?$char_traits@D@std@@V?$allocator@D@2@@std@@QBE?AV?$basic_string@DU?$char_traits@D@std@@V?$allocator@D@2@@2@XZ 100197c8     visuals.obj
 0002:000027ec       __catchsym$??$?6U?$char_traits@D@std@@@std@@YAAAV?$basic_ostream@DU?$char_traits@D@std@@@0@AAV10@PBD@Z$3 100197ec     visuals.obj
 0002:000027fc       __tryblocktable$??$?6U?$char_traits@D@std@@@std@@YAAAV?$basic_ostream@DU?$char_traits@D@std@@@0@AAV10@PBD@Z 100197fc     visuals.obj
 0002:00002810       __unwindtable$??$?6U?$char_traits@D@std@@@std@@YAAAV?$basic_ostream@DU?$char_traits@D@std@@@0@AAV10@PBD@Z 10019810     visuals.obj
 0002:00002828       __ehfuncinfo$??$?6U?$char_traits@D@std@@@std@@YAAAV?$basic_ostream@DU?$char_traits@D@std@@@0@AAV10@PBD@Z 10019828     visuals.obj
 0002:0000284c       __catchsym$??$?6DU?$char_traits@D@std@@D@std@@YAAAV?$basic_ostream@DU?$char_traits@D@std@@@0@AAV10@ABU?$_Timeobj@DPBUtm@@@0@@Z$4 1001984c     visuals.obj
 0002:0000285c       __tryblocktable$??$?6DU?$char_traits@D@std@@D@std@@YAAAV?$basic_ostream@DU?$char_traits@D@std@@@0@AAV10@ABU?$_Timeobj@DPBUtm@@@0@@Z 1001985c     visuals.obj
 0002:00002870       __unwindtable$??$?6DU?$char_traits@D@std@@D@std@@YAAAV?$basic_ostream@DU?$char_traits@D@std@@@0@AAV10@ABU?$_Timeobj@DPBUtm@@@0@@Z 10019870     visuals.obj
 0002:00002890       __ehfuncinfo$??$?6DU?$char_traits@D@std@@D@std@@YAAAV?$basic_ostream@DU?$char_traits@D@std@@@0@AAV10@ABU?$_Timeobj@DPBUtm@@@0@@Z 10019890     visuals.obj
 0002:000028b4       __unwindtable$??0sentry@?$basic_ostream@DU?$char_traits@D@std@@@std@@QAE@AAV12@@Z 100198b4     visuals.obj
 0002:000028bc       __ehfuncinfo$??0sentry@?$basic_ostream@DU?$char_traits@D@std@@@std@@QAE@AAV12@@Z 100198bc     visuals.obj
 0002:000028e0       __catchsym$??$_Insert_string@DU?$char_traits@D@std@@I@std@@YAAAV?$basic_ostream@DU?$char_traits@D@std@@@0@AAV10@QBDI@Z$3 100198e0     visuals.obj
 0002:000028f0       __tryblocktable$??$_Insert_string@DU?$char_traits@D@std@@I@std@@YAAAV?$basic_ostream@DU?$char_traits@D@std@@@0@AAV10@QBDI@Z 100198f0     visuals.obj
 0002:00002904       __unwindtable$??$_Insert_string@DU?$char_traits@D@std@@I@std@@YAAAV?$basic_ostream@DU?$char_traits@D@std@@@0@AAV10@QBDI@Z 10019904     visuals.obj
 0002:0000291c       __ehfuncinfo$??$_Insert_string@DU?$char_traits@D@std@@I@std@@YAAAV?$basic_ostream@DU?$char_traits@D@std@@@0@AAV10@QBDI@Z 1001991c     visuals.obj
 0002:00002940       __unwindtable$??$use_facet@V?$time_put@DV?$ostreambuf_iterator@DU?$char_traits@D@std@@@std@@@std@@@std@@YAABV?$time_put@DV?$ostreambuf_iterator@DU?$char_traits@D@std@@@std@@@0@ABVlocale@0@@Z 10019940     visuals.obj
 0002:00002950       __ehfuncinfo$??$use_facet@V?$time_put@DV?$ostreambuf_iterator@DU?$char_traits@D@std@@@std@@@std@@@std@@YAABV?$time_put@DV?$ostreambuf_iterator@DU?$char_traits@D@std@@@std@@@0@ABVlocale@0@@Z 10019950     visuals.obj
 0002:000029ac       __catchsym$?release@vmt_hook@@QAEXXZ$3 100199ac     hooks.obj
 0002:000029bc       __unwindtable$?release@vmt_hook@@QAEXXZ 100199bc     hooks.obj
 0002:000029cc       __tryblocktable$?release@vmt_hook@@QAEXXZ 100199cc     hooks.obj
 0002:000029e0       __ehfuncinfo$?release@vmt_hook@@QAEXXZ 100199e0     hooks.obj
 0002:00002a3c       __unwindtable$?singleton@events@@SAPAV1@XZ 10019a3c     main.obj
 0002:00002a44       __ehfuncinfo$?singleton@events@@SAPAV1@XZ 10019a44     main.obj
 0002:00002a68       __unwindtable$?draw_menu@menu@@YAXK@Z 10019a68     menu.obj
 0002:00002a70       __ehfuncinfo$?draw_menu@menu@@YAXK@Z 10019a70     menu.obj
 0002:00002a94       __unwindtable$?add_menu_entry@menu@@YAHHV?$basic_string@DU?$char_traits@D@std@@V?$allocator@D@2@@std@@PAHHHH@Z 10019a94     menu.obj
 0002:00002a94       __unwindtable$?add_menu_entry@menu@@YAHHV?$basic_string@DU?$char_traits@D@std@@V?$allocator@D@2@@std@@PAMMMM@Z 10019a94     menu.obj
 0002:00002a94       __unwindtable$?add_menu_entry@menu@@YAHHV?$basic_string@DU?$char_traits@D@std@@V?$allocator@D@2@@std@@PA_N@Z 10019a94     menu.obj
 0002:00002a94       __unwindtable$?add_menu_entry_int_string@menu@@YAHHV?$basic_string@DU?$char_traits@D@std@@V?$allocator@D@2@@std@@PAHHHH@Z 10019a94     menu.obj
 0002:00002a9c       __ehfuncinfo$?add_menu_entry@menu@@YAHHV?$basic_string@DU?$char_traits@D@std@@V?$allocator@D@2@@std@@PAHHHH@Z 10019a9c     menu.obj
 0002:00002a9c       __ehfuncinfo$?add_menu_entry@menu@@YAHHV?$basic_string@DU?$char_traits@D@std@@V?$allocator@D@2@@std@@PAMMMM@Z 10019a9c     menu.obj
 0002:00002a9c       __ehfuncinfo$?add_menu_entry@menu@@YAHHV?$basic_string@DU?$char_traits@D@std@@V?$allocator@D@2@@std@@PA_N@Z 10019a9c     menu.obj
 0002:00002a9c       __ehfuncinfo$?add_menu_entry_int_string@menu@@YAHHV?$basic_string@DU?$char_traits@D@std@@V?$allocator@D@2@@std@@PAHHHH@Z 10019a9c     menu.obj
 0002:00002ac0       __unwindtable$?safe@address@@SA_NV1@@Z 10019ac0     setup.obj
 0002:00002ac8       __ehfuncinfo$?safe@address@@SA_NV1@@Z 10019ac8     setup.obj
 0002:00002aec       __catchsym$?setup@vmt_hook@@QAE_NPAXPBD@Z$7 10019aec     setup.obj
 0002:00002afc       __catchsym$?setup@vmt_hook@@QAE_NPAXPBD@Z$6 10019afc     setup.obj
 0002:00002b0c       __ehfuncinfo$?setup@vmt_hook@@QAE_NPAXPBD@Z 10019b0c     setup.obj
 0002:00002b30       __tryblocktable$?setup@vmt_hook@@QAE_NPAXPBD@Z 10019b30     setup.obj
 0002:00002b58       __unwindtable$?setup@vmt_hook@@QAE_NPAXPBD@Z 10019b58     setup.obj
 0002:00002b80       __unwindtable$?setup_interfaces@s@@YAXXZ 10019b80     setup.obj
 0002:00002b98       __ehfuncinfo$?setup_interfaces@s@@YAXXZ 10019b98     setup.obj
 0002:00002bbc       __unwindtable$?hk_create_move@@YGXHM_NAA_N@Z 10019bbc     setup.obj
 0002:00002bc4       __ehfuncinfo$?hk_create_move@@YGXHM_NAA_N@Z 10019bc4     setup.obj
 0002:00002be8       __unwindtable$?hk_do_post_screen_effects@@YI_NPAViclientmodeshared@@PAXPAVview_setup@@@Z 10019be8     setup.obj
 0002:00002bf0       __ehfuncinfo$?hk_do_post_screen_effects@@YI_NPAViclientmodeshared@@PAXPAVview_setup@@@Z 10019bf0     setup.obj
 0002:00002c14       __unwindtable$?hk_get_viewmodel_fov@@YIMPAViclientmodeshared@@PAX@Z 10019c14     setup.obj
 0002:00002c1c       __ehfuncinfo$?hk_get_viewmodel_fov@@YIMPAViclientmodeshared@@PAX@Z 10019c1c     setup.obj
 0002:00002c40       __unwindtable$?hk_key_event@@YIHPAVchlclient@@PAXHHPBD@Z 10019c40     setup.obj
 0002:00002c48       __ehfuncinfo$?hk_key_event@@YIHPAVchlclient@@PAXHHPBD@Z 10019c48     setup.obj
 0002:00002c6c       __unwindtable$?hk_paint_traverse@@YIXPAVipanel@@PAXI_N2@Z 10019c6c     setup.obj
 0002:00002c74       __ehfuncinfo$?hk_paint_traverse@@YIXPAVipanel@@PAXI_N2@Z 10019c74     setup.obj
 0002:00002c98       __unwindtable$?hk_frame_stage_notify@@YIXPAVchlclient@@PAXW4client_frame_stage_t@@@Z 10019c98     setup.obj
 0002:00002ca0       __ehfuncinfo$?hk_frame_stage_notify@@YIXPAVchlclient@@PAXW4client_frame_stage_t@@@Z 10019ca0     setup.obj
 0002:00002cc4       __unwindtable$?hk_override_view@@YIXPAViclientmodeshared@@PAXPAVview_setup@@@Z 10019cc4     setup.obj
 0002:00002ccc       __ehfuncinfo$?hk_override_view@@YIXPAViclientmodeshared@@PAXPAVview_setup@@@Z 10019ccc     setup.obj
 0002:00002cf0       __unwindtable$?hk_draw_model_execute@@YIXPAVimodelrender@@PAXPAVimatrendercontext@@ABUdraw_model_state@@ABUmodel_render_info_t@@PAY123M@Z 10019cf0     setup.obj
 0002:00002cf8       __ehfuncinfo$?hk_draw_model_execute@@YIXPAVimodelrender@@PAXPAVimatrendercontext@@ABUdraw_model_state@@ABUmodel_render_info_t@@PAY123M@Z 10019cf8     setup.obj
 0002:00002d1c       __unwindtable$??$get_method@Vaddress@@@u@@YA?AVaddress@@V1@I@Z 10019d1c     setup.obj
 0002:00002d24       __ehfuncinfo$??$get_method@Vaddress@@@u@@YA?AVaddress@@V1@I@Z 10019d24     setup.obj
 0002:00002d48       __unwindtable$??$make_unique@Vvmt_hook@@$$V$0A@@std@@YA?AV?$unique_ptr@Vvmt_hook@@U?$default_delete@Vvmt_hook@@@std@@@0@XZ 10019d48     setup.obj
 0002:00002d50       __ehfuncinfo$??$make_unique@Vvmt_hook@@$$V$0A@@std@@YA?AV?$unique_ptr@Vvmt_hook@@U?$default_delete@Vvmt_hook@@@std@@@0@XZ 10019d50     setup.obj
 0002:00002d78       __sehtable$___scrt_is_nonwritable_in_current_image 10019d78     MSVCRT:utility.obj
 0002:00002d98       __sehtable$??_L@YGXPAXIIP6EX0@Z1@Z 10019d98     MSVCRT:ehvecctr.obj
 0002:00002db8       __sehtable$??_M@YGXPAXIIP6EX0@Z@Z 10019db8     MSVCRT:ehvecdtr.obj
 0002:00002dd8       __sehtable$?__ArrayUnwind@@YGXPAXIIP6EX0@Z@Z 10019dd8     MSVCRT:ehvecdtr.obj
 0002:00002df8       __sehtable$?dllmain_crt_process_attach@@YAHQAUHINSTANCE__@@QAX@Z 10019df8     MSVCRT:dll_dllmain.obj
 0002:00002e18       __sehtable$?dllmain_crt_process_detach@@YAH_N@Z 10019e18     MSVCRT:dll_dllmain.obj
 0002:00002e38       __sehtable$?dllmain_dispatch@@YAHQAUHINSTANCE__@@KQAX@Z 10019e38     MSVCRT:dll_dllmain.obj
 0002:00003246       .idata$6                   1001a246     kernel32:KERNEL32.dll
 0002:00003e5e       .idata$6                   1001ae5e     msvcprt:MSVCP140.dll
 0002:00003f80       .idata$6                   1001af80     vcruntime:VCRUNTIME140.dll
 0002:00004196       .idata$6                   1001b196     ucrt:api-ms-win-crt-runtime-l1-1-0.dll
 0002:000041b8       .idata$6                   1001b1b8     ucrt:api-ms-win-crt-heap-l1-1-0.dll
 0002:000041d8       .idata$6                   1001b1d8     ucrt:api-ms-win-crt-math-l1-1-0.dll
 0002:000041f8       .idata$6                   1001b1f8     ucrt:api-ms-win-crt-convert-l1-1-0.dll
 0002:0000421a       .idata$6                   1001b21a     ucrt:api-ms-win-crt-time-l1-1-0.dll
 0002:0000423a       .idata$6                   1001b23a     ucrt:api-ms-win-crt-stdio-l1-1-0.dll
 0002:0000425a       .idata$6                   1001b25a     ucrt:api-ms-win-crt-string-l1-1-0.dll
 0003:00000000       ?speed@?1??do_auto_stop@a@@YAXXZ@4MA 1001c000     aimbot.obj
 0003:000000c0       ?init@?1??hk_paint_traverse@@YIXPAVipanel@@PAXI_N2@Z@4_NA 1001c0c0     setup.obj
 0003:00000450       ?delay@?M@??do_auto_revolver@a@@YAXXZ@4HA 1001c450     aimbot.obj
 0003:00000454       ?choked@?1??fake_walk@hvh@@YAXAA_N@Z@4HA 1001c454     hvh.obj
 0003:00000458       ?last_cmd@?1??get_current_time@hvh@@YAMPAVuser_cmd@@@Z@4PAV3@A 1001c458     hvh.obj
 0003:0000045c       ?tick@?1??get_current_time@hvh@@YAMPAVuser_cmd@@@Z@4HA 1001c45c     hvh.obj
 0003:00000460       ?next_lby_update@?1??should_break_lby@hvh@@YA_NXZ@4MA 1001c460     hvh.obj
 0003:00000464       ?set_clan_tag@?1??0m@@YAXPBD@Z@4P6IX00@ZA 1001c464     misc.obj
 0003:00000468       ?$TSS0@?1??set_clan_tag@m@@YAXPBD@Z@4HA 1001c468     misc.obj
 0003:0000046c       ?reverse@?1??clan_tag@m@@YAXXZ@4_NA 1001c46c     misc.obj
 0003:00000470       ?index@?1??clan_tag@m@@YAXXZ@4HA 1001c470     misc.obj
 0003:00000474       ?reverse@?1??clan_tag_og@m@@YAXXZ@4_NA 1001c474     misc.obj
 0003:00000478       ?index@?1??clan_tag_og@m@@YAXXZ@4HA 1001c478     misc.obj
 0003:0000047c       ?jump_released@?1??auto_movement@m@@YAXXZ@4_NA 1001c47c     misc.obj
 0003:00000480       ?crosshair@?1??0m@@YAXXZ@4PAVconvar@@A 1001c480     misc.obj
 0003:00000484       ?$TSS0@?1??crosshair@m@@YAXXZ@4HA 1001c484     misc.obj
 0003:00000488       ?weapon_debug_spread_show@?1??crosshair@m@@YAXXZ@4PAVconvar@@A 1001c488     misc.obj
 0003:0000048c       ?$TSS1@?1??crosshair@m@@YAXXZ@4HA 1001c48c     misc.obj
 0003:00000490       ?viewmodel_offset_x@?1??viewmodel@m@@YAXXZ@4PAVconvar@@A 1001c490     misc.obj
 0003:00000494       ?$TSS0@?1??viewmodel@m@@YAXXZ@4HA 1001c494     misc.obj
 0003:00000498       ?viewmodel_offset_y@?1??viewmodel@m@@YAXXZ@4PAVconvar@@A 1001c498     misc.obj
 0003:0000049c       ?$TSS1@?1??viewmodel@m@@YAXXZ@4HA 1001c49c     misc.obj
 0003:000004a0       ?viewmodel_offset_z@?1??viewmodel@m@@YAXXZ@4PAVconvar@@A 1001c4a0     misc.obj
 0003:000004a4       ?$TSS2@?1??viewmodel@m@@YAXXZ@4HA 1001c4a4     misc.obj
 0003:000004b8       ?fps@?1??watermark@v@@YAXXZ@4HA 1001c4b8     visuals.obj
 0003:000004bc       ?old_tick_count@?1??watermark@v@@YAXXZ@4HA 1001c4bc     visuals.obj
 0003:000004c0       ?fps@?1??user@v@@YAXXZ@4HA 1001c4c0     visuals.obj
 0003:000004c4       ?old_tick_count@?1??user@v@@YAXXZ@4HA 1001c4c4     visuals.obj
 0003:000004c8       ?real_color@?1??arrows@v@@YAXXZ@4Vcolor@@B 1001c4c8     visuals.obj
 0003:000004cc       ?$TSS0@?1??arrows@v@@YAXXZ@4HA 1001c4cc     visuals.obj
 0003:000004d0       ?fake_color@?1??arrows@v@@YAXXZ@4Vcolor@@B 1001c4d0     visuals.obj
 0003:000004d4       ?$TSS1@?1??arrows@v@@YAXXZ@4HA 1001c4d4     visuals.obj
 0003:000004d8       ?lby_color@?1??arrows@v@@YAXXZ@4Vcolor@@B 1001c4d8     visuals.obj
 0003:000004dc       ?$TSS2@?1??arrows@v@@YAXXZ@4HA 1001c4dc     visuals.obj
 0003:00001ce4       ?original_create_move@?1??hk_create_move@@YGXHM_NAA_N@Z@4P6IXPAXHHM0@ZA 1001dce4     setup.obj
 0003:00001ce8       ?$TSS0@?1??hk_create_move@@YGXHM_NAA_N@Z@4HA 1001dce8     setup.obj
 0003:00001cec       ?original_do_post_screen_effects@?1??hk_do_post_screen_effects@@YI_NPAViclientmodeshared@@PAXPAVview_setup@@@Z@4P6I_N012@ZA 1001dcec     setup.obj
 0003:00001cf0       ?$TSS0@?1??hk_do_post_screen_effects@@YI_NPAViclientmodeshared@@PAXPAVview_setup@@@Z@4HA 1001dcf0     setup.obj
 0003:00001cf4       ?original_get_viewmodel_fov@?1??hk_get_viewmodel_fov@@YIMPAViclientmodeshared@@PAX@Z@4P6IM01@ZA 1001dcf4     setup.obj
 0003:00001cf8       ?$TSS0@?1??hk_get_viewmodel_fov@@YIMPAViclientmodeshared@@PAX@Z@4HA 1001dcf8     setup.obj
 0003:00001cfc       ?original_key_event@?1??hk_key_event@@YIHPAVchlclient@@PAXHHPBD@Z@4P6IH01HH2@ZA 1001dcfc     setup.obj
 0003:00001d00       ?$TSS0@?1??hk_key_event@@YIHPAVchlclient@@PAXHHPBD@Z@4HA 1001dd00     setup.obj
 0003:00001d04       ?original_paint_traverse@?1??hk_paint_traverse@@YIXPAVipanel@@PAXI_N2@Z@4P6IX01I22@ZA 1001dd04     setup.obj
 0003:00001d08       ?$TSS0@?1??hk_paint_traverse@@YIXPAVipanel@@PAXI_N2@Z@4HA 1001dd08     setup.obj
 0003:00001d0c       ?original_frame_stage_notify@?1??hk_frame_stage_notify@@YIXPAVchlclient@@PAXW4client_frame_stage_t@@@Z@4P6IX012@ZA 1001dd0c     setup.obj
 0003:00001d10       ?$TSS0@?1??hk_frame_stage_notify@@YIXPAVchlclient@@PAXW4client_frame_stage_t@@@Z@4HA 1001dd10     setup.obj
 0003:00001d14       ?original_override_view@?1??hk_override_view@@YIXPAViclientmodeshared@@PAXPAVview_setup@@@Z@4P6IX012@ZA 1001dd14     setup.obj
 0003:00001d18       ?$TSS0@?1??hk_override_view@@YIXPAViclientmodeshared@@PAXPAVview_setup@@@Z@4HA 1001dd18     setup.obj
 0003:00001d1c       ?original_draw_model_execute@?1??hk_draw_model_execute@@YIXPAVimodelrender@@PAXPAVimatrendercontext@@ABUdraw_model_state@@ABUmodel_render_info_t@@PAY123M@Z@4P6IX012345@ZA 1001dd1c     setup.obj
 0003:00001d20       ?$TSS0@?1??hk_draw_model_execute@@YIXPAVimodelrender@@PAXPAVimatrendercontext@@ABUdraw_model_state@@ABUmodel_render_info_t@@PAY123M@Z@4HA 1001dd20     setup.obj
 0003:00001d24       ?_Fac_tidy_reg@std@@3U_Fac_tidy_reg_t@1@B 1001dd24     msvcprt:locale0_implib.obj
 0003:00001d28       ?_Fac_head@std@@3PAU_Fac_node@1@A 1001dd28     msvcprt:locale0_implib.obj
 0003:00001d2c       ?g_tss_cv@@3U_RTL_CONDITION_VARIABLE@@A 1001dd2c     MSVCRT:thread_safe_statics.obj
 0003:00001d30       ?g_tss_event@@3PAXA        1001dd30     MSVCRT:thread_safe_statics.obj
 0003:00001d34       ?g_tss_mutex@@3U_RTL_CRITICAL_SECTION@@A 1001dd34     MSVCRT:thread_safe_statics.obj
 0003:00001d4c       ?g_sleep_condition_variable_cs@@3P6GHPAU_RTL_CONDITION_VARIABLE@@PAU_RTL_CRITICAL_SECTION@@K@ZA 1001dd4c     MSVCRT:thread_safe_statics.obj
 0003:00001d50       ?g_wake_all_condition_variable@@3P6GXPAU_RTL_CONDITION_VARIABLE@@@ZA 1001dd50     MSVCRT:thread_safe_statics.obj
 0003:00001d60       ?is_initialized_as_dll@@3_NA 1001dd60     MSVCRT:utility.obj
 0003:00001d61       ?module_local_atexit_table_initialized@@3_NA 1001dd61     MSVCRT:utility.obj
 0003:00001d64       ?module_local_atexit_table@@3U_onexit_table_t@@A 1001dd64     MSVCRT:utility.obj
 0003:00001d70       ?module_local_at_quick_exit_table@@3U_onexit_table_t@@A 1001dd70     MSVCRT:utility.obj
 0003:00001d7c       ?__proc_attached@@3HA      1001dd7c     MSVCRT:dll_dllmain.obj
 0003:00001d88       _GS_ExceptionRecord        1001dd88     MSVCRT:gs_report.obj
 0003:00001dd8       _GS_ContextRecord          1001ddd8     MSVCRT:gs_report.obj
 0004:00000060       $R000000                   1001f060     * linker generated manifest res *
